ARM GAS  C:\Users\ISAACS~1\AppData\Local\Temp\ccn2YgzQ.s 			page 1


   1              		.syntax unified
   2              		.cpu cortex-m3
   3              		.fpu softvfp
   4              		.eabi_attribute 20, 1
   5              		.eabi_attribute 21, 1
   6              		.eabi_attribute 23, 3
   7              		.eabi_attribute 24, 1
   8              		.eabi_attribute 25, 1
   9              		.eabi_attribute 26, 1
  10              		.eabi_attribute 30, 6
  11              		.eabi_attribute 18, 4
  12              		.thumb
  13              		.file	"MAD_1.c"
  20 0000 F1010000 		.text
  20      02005E00 
  20      00000201 
  20      FB0E0D00 
  20      01010101 
  21              	.Ltext0:
  22              		.cfi_sections	.debug_frame
  23              		.global	MAD_1_initVar
  24              		.bss
  25              		.type	MAD_1_initVar, %object
  26              		.size	MAD_1_initVar, 1
  27              	MAD_1_initVar:
  28 0000 00       		.space	1
  29              		.comm	MAD_1_offset,2,2
  30              		.comm	MAD_1_countsPerVolt,2,2
  31              		.comm	MAD_1_shift,2,2
  32              	MAD_1_resolution:
  33 0001 00       		.space	1
  34              		.section	.text.MAD_1_Start,"ax",%progbits
  35              		.align	2
  36              		.global	MAD_1_Start
  37              		.thumb
  38              		.thumb_func
  39              		.type	MAD_1_Start, %function
  40              	MAD_1_Start:
  41              	.LFB0:
  42              		.file 1 ".\\Generated_Source\\PSoC5\\MAD_1.c"
   1:.\Generated_Source\PSoC5/MAD_1.c **** /*******************************************************************************
   2:.\Generated_Source\PSoC5/MAD_1.c **** * File Name: MAD_1.c
   3:.\Generated_Source\PSoC5/MAD_1.c **** * Version 2.0
   4:.\Generated_Source\PSoC5/MAD_1.c **** *
   5:.\Generated_Source\PSoC5/MAD_1.c **** * Description:
   6:.\Generated_Source\PSoC5/MAD_1.c **** *  This file provides the source code to the API for the Successive
   7:.\Generated_Source\PSoC5/MAD_1.c **** *  approximation ADC Component.
   8:.\Generated_Source\PSoC5/MAD_1.c **** *
   9:.\Generated_Source\PSoC5/MAD_1.c **** * Note:
  10:.\Generated_Source\PSoC5/MAD_1.c **** *
  11:.\Generated_Source\PSoC5/MAD_1.c **** ********************************************************************************
ARM GAS  C:\Users\ISAACS~1\AppData\Local\Temp\ccn2YgzQ.s 			page 2


  12:.\Generated_Source\PSoC5/MAD_1.c **** * Copyright 2008-2012, Cypress Semiconductor Corporation.  All rights reserved.
  13:.\Generated_Source\PSoC5/MAD_1.c **** * You may use this file only in accordance with the license, terms, conditions,
  14:.\Generated_Source\PSoC5/MAD_1.c **** * disclaimers, and limitations in the end user license agreement accompanying
  15:.\Generated_Source\PSoC5/MAD_1.c **** * the software package with which this file was provided.
  16:.\Generated_Source\PSoC5/MAD_1.c **** *******************************************************************************/
  17:.\Generated_Source\PSoC5/MAD_1.c **** 
  18:.\Generated_Source\PSoC5/MAD_1.c **** #include "CyLib.h"
  19:.\Generated_Source\PSoC5/MAD_1.c **** #include "MAD_1.h"
  20:.\Generated_Source\PSoC5/MAD_1.c **** 
  21:.\Generated_Source\PSoC5/MAD_1.c **** #if(MAD_1_DEFAULT_INTERNAL_CLK)
  22:.\Generated_Source\PSoC5/MAD_1.c ****     #include "MAD_1_theACLK.h"
  23:.\Generated_Source\PSoC5/MAD_1.c **** #endif /* End MAD_1_DEFAULT_INTERNAL_CLK */
  24:.\Generated_Source\PSoC5/MAD_1.c **** 
  25:.\Generated_Source\PSoC5/MAD_1.c **** 
  26:.\Generated_Source\PSoC5/MAD_1.c **** /***************************************
  27:.\Generated_Source\PSoC5/MAD_1.c **** * Forward function references
  28:.\Generated_Source\PSoC5/MAD_1.c **** ***************************************/
  29:.\Generated_Source\PSoC5/MAD_1.c **** static void MAD_1_CalcGain(uint8 resolution);
  30:.\Generated_Source\PSoC5/MAD_1.c **** 
  31:.\Generated_Source\PSoC5/MAD_1.c **** 
  32:.\Generated_Source\PSoC5/MAD_1.c **** /***************************************
  33:.\Generated_Source\PSoC5/MAD_1.c **** * Global data allocation
  34:.\Generated_Source\PSoC5/MAD_1.c **** ***************************************/
  35:.\Generated_Source\PSoC5/MAD_1.c **** uint8 MAD_1_initVar = 0u;
  36:.\Generated_Source\PSoC5/MAD_1.c **** volatile int16 MAD_1_offset;
  37:.\Generated_Source\PSoC5/MAD_1.c **** volatile int16 MAD_1_countsPerVolt;   /* Gain compensation */
  38:.\Generated_Source\PSoC5/MAD_1.c **** volatile int16 MAD_1_shift;
  39:.\Generated_Source\PSoC5/MAD_1.c **** 
  40:.\Generated_Source\PSoC5/MAD_1.c **** 
  41:.\Generated_Source\PSoC5/MAD_1.c **** /***************************************
  42:.\Generated_Source\PSoC5/MAD_1.c **** * Local data allocation
  43:.\Generated_Source\PSoC5/MAD_1.c **** ***************************************/
  44:.\Generated_Source\PSoC5/MAD_1.c **** #if(CY_PSOC5A)
  45:.\Generated_Source\PSoC5/MAD_1.c ****     static uint8 MAD_1_resolution;
  46:.\Generated_Source\PSoC5/MAD_1.c **** #endif /* End CY_PSOC5A */
  47:.\Generated_Source\PSoC5/MAD_1.c **** 
  48:.\Generated_Source\PSoC5/MAD_1.c **** 
  49:.\Generated_Source\PSoC5/MAD_1.c **** /*******************************************************************************
  50:.\Generated_Source\PSoC5/MAD_1.c **** * Function Name: MAD_1_Start
  51:.\Generated_Source\PSoC5/MAD_1.c **** ********************************************************************************
  52:.\Generated_Source\PSoC5/MAD_1.c **** *
  53:.\Generated_Source\PSoC5/MAD_1.c **** * Summary:
  54:.\Generated_Source\PSoC5/MAD_1.c **** *  Performs all required initialization for this component and enables the
  55:.\Generated_Source\PSoC5/MAD_1.c **** *  power.
  56:.\Generated_Source\PSoC5/MAD_1.c **** *
  57:.\Generated_Source\PSoC5/MAD_1.c **** * Parameters:
  58:.\Generated_Source\PSoC5/MAD_1.c **** *  None.
  59:.\Generated_Source\PSoC5/MAD_1.c **** *
  60:.\Generated_Source\PSoC5/MAD_1.c **** * Return:
  61:.\Generated_Source\PSoC5/MAD_1.c **** *  None.
  62:.\Generated_Source\PSoC5/MAD_1.c **** *
  63:.\Generated_Source\PSoC5/MAD_1.c **** * Global variables:
  64:.\Generated_Source\PSoC5/MAD_1.c **** *  The MAD_1_initVar variable is used to indicate when/if initial
  65:.\Generated_Source\PSoC5/MAD_1.c **** *  configuration of this component has happened. The variable is initialized to
  66:.\Generated_Source\PSoC5/MAD_1.c **** *  zero and set to 1 the first time ADC_Start() is called. This allows for
  67:.\Generated_Source\PSoC5/MAD_1.c **** *  component Re-Start without re-initialization in all subsequent calls to the
  68:.\Generated_Source\PSoC5/MAD_1.c **** *  MAD_1_Start() routine.
ARM GAS  C:\Users\ISAACS~1\AppData\Local\Temp\ccn2YgzQ.s 			page 3


  69:.\Generated_Source\PSoC5/MAD_1.c **** *  If re-initialization of the component is required the variable should be set
  70:.\Generated_Source\PSoC5/MAD_1.c **** *  to zero before call of MAD_1_Start() routine, or the user may call
  71:.\Generated_Source\PSoC5/MAD_1.c **** *  MAD_1_Init() and MAD_1_Enable() as done in the
  72:.\Generated_Source\PSoC5/MAD_1.c **** *  MAD_1_Start() routine.
  73:.\Generated_Source\PSoC5/MAD_1.c **** *
  74:.\Generated_Source\PSoC5/MAD_1.c **** *******************************************************************************/
  75:.\Generated_Source\PSoC5/MAD_1.c **** void MAD_1_Start(void)
  76:.\Generated_Source\PSoC5/MAD_1.c **** {
  43              		.loc 1 76 0
  44              		.cfi_startproc
  45              		@ args = 0, pretend = 0, frame = 0
  46              		@ frame_needed = 1, uses_anonymous_args = 0
  47 0000 80B5     		push	{r7, lr}
  48              	.LCFI0:
  49              		.cfi_def_cfa_offset 8
  50 0002 00AF     		add	r7, sp, #0
  51              		.cfi_offset 14, -4
  52              		.cfi_offset 7, -8
  53              	.LCFI1:
  54              		.cfi_def_cfa_register 7
  77:.\Generated_Source\PSoC5/MAD_1.c **** 
  78:.\Generated_Source\PSoC5/MAD_1.c ****     /* If not Initialized then initialize all required hardware and software */
  79:.\Generated_Source\PSoC5/MAD_1.c ****     if(MAD_1_initVar == 0u)
  55              		.loc 1 79 0
  56 0004 40F20003 		movw	r3, #:lower16:MAD_1_initVar
  57 0008 C0F20003 		movt	r3, #:upper16:MAD_1_initVar
  58 000c 1B78     		ldrb	r3, [r3, #0]	@ zero_extendqisi2
  59 000e 002B     		cmp	r3, #0
  60 0010 08D1     		bne	.L2
  80:.\Generated_Source\PSoC5/MAD_1.c ****     {
  81:.\Generated_Source\PSoC5/MAD_1.c ****         MAD_1_Init();
  61              		.loc 1 81 0
  62 0012 FFF7FEFF 		bl	MAD_1_Init
  82:.\Generated_Source\PSoC5/MAD_1.c ****         MAD_1_initVar = 1u;
  63              		.loc 1 82 0
  64 0016 40F20003 		movw	r3, #:lower16:MAD_1_initVar
  65 001a C0F20003 		movt	r3, #:upper16:MAD_1_initVar
  66 001e 4FF00102 		mov	r2, #1
  67 0022 1A70     		strb	r2, [r3, #0]
  68              	.L2:
  83:.\Generated_Source\PSoC5/MAD_1.c ****     }
  84:.\Generated_Source\PSoC5/MAD_1.c ****     MAD_1_Enable();
  69              		.loc 1 84 0
  70 0024 FFF7FEFF 		bl	MAD_1_Enable
  85:.\Generated_Source\PSoC5/MAD_1.c **** }
  71              		.loc 1 85 0
  72 0028 80BD     		pop	{r7, pc}
  73              		.cfi_endproc
  74              	.LFE0:
  75              		.size	MAD_1_Start, .-MAD_1_Start
  76 002a 00BF     		.section	.text.MAD_1_Init,"ax",%progbits
  77              		.align	2
  78              		.global	MAD_1_Init
  79              		.thumb
  80              		.thumb_func
  81              		.type	MAD_1_Init, %function
  82              	MAD_1_Init:
ARM GAS  C:\Users\ISAACS~1\AppData\Local\Temp\ccn2YgzQ.s 			page 4


  83              	.LFB1:
  86:.\Generated_Source\PSoC5/MAD_1.c **** 
  87:.\Generated_Source\PSoC5/MAD_1.c **** 
  88:.\Generated_Source\PSoC5/MAD_1.c **** /*******************************************************************************
  89:.\Generated_Source\PSoC5/MAD_1.c **** * Function Name: MAD_1_Init
  90:.\Generated_Source\PSoC5/MAD_1.c **** ********************************************************************************
  91:.\Generated_Source\PSoC5/MAD_1.c **** *
  92:.\Generated_Source\PSoC5/MAD_1.c **** * Summary:
  93:.\Generated_Source\PSoC5/MAD_1.c **** *  Initialize component's parameters to the parameters set by user in the
  94:.\Generated_Source\PSoC5/MAD_1.c **** *  customizer of the component placed onto schematic. Usually called in
  95:.\Generated_Source\PSoC5/MAD_1.c **** *  MAD_1_Start().
  96:.\Generated_Source\PSoC5/MAD_1.c **** *
  97:.\Generated_Source\PSoC5/MAD_1.c **** * Parameters:
  98:.\Generated_Source\PSoC5/MAD_1.c **** *  None.
  99:.\Generated_Source\PSoC5/MAD_1.c **** *
 100:.\Generated_Source\PSoC5/MAD_1.c **** * Return:
 101:.\Generated_Source\PSoC5/MAD_1.c **** *  None.
 102:.\Generated_Source\PSoC5/MAD_1.c **** *
 103:.\Generated_Source\PSoC5/MAD_1.c **** * Global variables:
 104:.\Generated_Source\PSoC5/MAD_1.c **** *  The MAD_1_offset variable is initialized to 0.
 105:.\Generated_Source\PSoC5/MAD_1.c **** *
 106:.\Generated_Source\PSoC5/MAD_1.c **** *******************************************************************************/
 107:.\Generated_Source\PSoC5/MAD_1.c **** void MAD_1_Init(void)
 108:.\Generated_Source\PSoC5/MAD_1.c **** {
  84              		.loc 1 108 0
  85              		.cfi_startproc
  86              		@ args = 0, pretend = 0, frame = 0
  87              		@ frame_needed = 1, uses_anonymous_args = 0
  88 0000 80B5     		push	{r7, lr}
  89              	.LCFI2:
  90              		.cfi_def_cfa_offset 8
  91 0002 00AF     		add	r7, sp, #0
  92              		.cfi_offset 14, -4
  93              		.cfi_offset 7, -8
  94              	.LCFI3:
  95              		.cfi_def_cfa_register 7
 109:.\Generated_Source\PSoC5/MAD_1.c **** 
 110:.\Generated_Source\PSoC5/MAD_1.c ****     /* This is only valid if there is an internal clock */
 111:.\Generated_Source\PSoC5/MAD_1.c ****     #if(MAD_1_DEFAULT_INTERNAL_CLK)
 112:.\Generated_Source\PSoC5/MAD_1.c ****         MAD_1_theACLK_SetMode(CYCLK_DUTY);
  96              		.loc 1 112 0
  97 0004 4FF01000 		mov	r0, #16
  98 0008 FFF7FEFF 		bl	MAD_1_theACLK_SetModeRegister
 113:.\Generated_Source\PSoC5/MAD_1.c ****     #endif /* End MAD_1_DEFAULT_INTERNAL_CLK */
 114:.\Generated_Source\PSoC5/MAD_1.c **** 
 115:.\Generated_Source\PSoC5/MAD_1.c ****     #if(MAD_1_IRQ_REMOVE == 0u)
 116:.\Generated_Source\PSoC5/MAD_1.c ****         /* Start and set interrupt vector */
 117:.\Generated_Source\PSoC5/MAD_1.c ****         CyIntSetPriority(MAD_1_INTC_NUMBER, MAD_1_INTC_PRIOR_NUMBER);
  99              		.loc 1 117 0
 100 000c 4FF00000 		mov	r0, #0
 101 0010 4FF00701 		mov	r1, #7
 102 0014 FFF7FEFF 		bl	CyIntSetPriority
 118:.\Generated_Source\PSoC5/MAD_1.c ****         (void)CyIntSetVector(MAD_1_INTC_NUMBER, &MAD_1_ISR);
 103              		.loc 1 118 0
 104 0018 4FF00000 		mov	r0, #0
 105 001c 40F20001 		movw	r1, #:lower16:MAD_1_ISR
 106 0020 C0F20001 		movt	r1, #:upper16:MAD_1_ISR
ARM GAS  C:\Users\ISAACS~1\AppData\Local\Temp\ccn2YgzQ.s 			page 5


 107 0024 FFF7FEFF 		bl	CyIntSetVector
 119:.\Generated_Source\PSoC5/MAD_1.c ****     #endif   /* End MAD_1_IRQ_REMOVE */        
 120:.\Generated_Source\PSoC5/MAD_1.c **** 
 121:.\Generated_Source\PSoC5/MAD_1.c ****     /* Enable IRQ mode*/
 122:.\Generated_Source\PSoC5/MAD_1.c ****     MAD_1_SAR_CSR1_REG |= MAD_1_SAR_IRQ_MASK_EN | MAD_1_SAR_IRQ_MODE_EDGE;
 108              		.loc 1 122 0
 109 0028 45F60913 		movw	r3, #:lower16:1073764617
 110 002c C4F20003 		movt	r3, #:upper16:1073764617
 111 0030 45F60912 		movw	r2, #:lower16:1073764617
 112 0034 C4F20002 		movt	r2, #:upper16:1073764617
 113 0038 1278     		ldrb	r2, [r2, #0]
 114 003a D2B2     		uxtb	r2, r2
 115 003c 42F00602 		orr	r2, r2, #6
 116 0040 D2B2     		uxtb	r2, r2
 117 0042 1A70     		strb	r2, [r3, #0]
 123:.\Generated_Source\PSoC5/MAD_1.c **** 
 124:.\Generated_Source\PSoC5/MAD_1.c ****     /*Set SAR ADC resolution ADC */
 125:.\Generated_Source\PSoC5/MAD_1.c ****     MAD_1_SetResolution(MAD_1_DEFAULT_RESOLUTION);
 118              		.loc 1 125 0
 119 0044 4FF00C00 		mov	r0, #12
 120 0048 FFF7FEFF 		bl	MAD_1_SetResolution
 126:.\Generated_Source\PSoC5/MAD_1.c ****     MAD_1_offset = 0;
 121              		.loc 1 126 0
 122 004c 40F20003 		movw	r3, #:lower16:MAD_1_offset
 123 0050 C0F20003 		movt	r3, #:upper16:MAD_1_offset
 124 0054 4FF00002 		mov	r2, #0
 125 0058 1A80     		strh	r2, [r3, #0]	@ movhi
 127:.\Generated_Source\PSoC5/MAD_1.c **** }
 126              		.loc 1 127 0
 127 005a 80BD     		pop	{r7, pc}
 128              		.cfi_endproc
 129              	.LFE1:
 130              		.size	MAD_1_Init, .-MAD_1_Init
 131              		.section	.text.MAD_1_Enable,"ax",%progbits
 132              		.align	2
 133              		.global	MAD_1_Enable
 134              		.thumb
 135              		.thumb_func
 136              		.type	MAD_1_Enable, %function
 137              	MAD_1_Enable:
 138              	.LFB2:
 128:.\Generated_Source\PSoC5/MAD_1.c **** 
 129:.\Generated_Source\PSoC5/MAD_1.c **** 
 130:.\Generated_Source\PSoC5/MAD_1.c **** /*******************************************************************************
 131:.\Generated_Source\PSoC5/MAD_1.c **** * Function Name: MAD_1_Enable
 132:.\Generated_Source\PSoC5/MAD_1.c **** ********************************************************************************
 133:.\Generated_Source\PSoC5/MAD_1.c **** *
 134:.\Generated_Source\PSoC5/MAD_1.c **** * Summary:
 135:.\Generated_Source\PSoC5/MAD_1.c **** *  Enables the reference, clock and power for SAR ADC.
 136:.\Generated_Source\PSoC5/MAD_1.c **** *
 137:.\Generated_Source\PSoC5/MAD_1.c **** * Parameters:
 138:.\Generated_Source\PSoC5/MAD_1.c **** *  None.
 139:.\Generated_Source\PSoC5/MAD_1.c **** *
 140:.\Generated_Source\PSoC5/MAD_1.c **** * Return:
 141:.\Generated_Source\PSoC5/MAD_1.c **** *  None.
 142:.\Generated_Source\PSoC5/MAD_1.c **** *
 143:.\Generated_Source\PSoC5/MAD_1.c **** *******************************************************************************/
ARM GAS  C:\Users\ISAACS~1\AppData\Local\Temp\ccn2YgzQ.s 			page 6


 144:.\Generated_Source\PSoC5/MAD_1.c **** void MAD_1_Enable(void)
 145:.\Generated_Source\PSoC5/MAD_1.c **** {
 139              		.loc 1 145 0
 140              		.cfi_startproc
 141              		@ args = 0, pretend = 0, frame = 8
 142              		@ frame_needed = 1, uses_anonymous_args = 0
 143 0000 80B5     		push	{r7, lr}
 144              	.LCFI4:
 145              		.cfi_def_cfa_offset 8
 146 0002 82B0     		sub	sp, sp, #8
 147              	.LCFI5:
 148              		.cfi_def_cfa_offset 16
 149 0004 00AF     		add	r7, sp, #0
 150              		.cfi_offset 14, -4
 151              		.cfi_offset 7, -8
 152              	.LCFI6:
 153              		.cfi_def_cfa_register 7
 146:.\Generated_Source\PSoC5/MAD_1.c ****     uint8 tmpReg;
 147:.\Generated_Source\PSoC5/MAD_1.c ****     uint8 enableInterrupts;
 148:.\Generated_Source\PSoC5/MAD_1.c ****     enableInterrupts = CyEnterCriticalSection();
 154              		.loc 1 148 0
 155 0006 FFF7FEFF 		bl	CyEnterCriticalSection
 156 000a 0346     		mov	r3, r0
 157 000c FB71     		strb	r3, [r7, #7]
 149:.\Generated_Source\PSoC5/MAD_1.c **** 
 150:.\Generated_Source\PSoC5/MAD_1.c ****     /* Enable the SAR ADC block in Active Power Mode */
 151:.\Generated_Source\PSoC5/MAD_1.c ****     MAD_1_PWRMGR_SAR_REG |= MAD_1_ACT_PWR_SAR_EN;
 158              		.loc 1 151 0
 159 000e 44F2AB33 		movw	r3, #:lower16:1073759147
 160 0012 C4F20003 		movt	r3, #:upper16:1073759147
 161 0016 44F2AB32 		movw	r2, #:lower16:1073759147
 162 001a C4F20002 		movt	r2, #:upper16:1073759147
 163 001e 1278     		ldrb	r2, [r2, #0]
 164 0020 D2B2     		uxtb	r2, r2
 165 0022 42F00202 		orr	r2, r2, #2
 166 0026 D2B2     		uxtb	r2, r2
 167 0028 1A70     		strb	r2, [r3, #0]
 152:.\Generated_Source\PSoC5/MAD_1.c **** 
 153:.\Generated_Source\PSoC5/MAD_1.c ****      /* Enable the SAR ADC in Standby Power Mode*/
 154:.\Generated_Source\PSoC5/MAD_1.c ****     MAD_1_STBY_PWRMGR_SAR_REG |= MAD_1_STBY_PWR_SAR_EN;
 168              		.loc 1 154 0
 169 002a 44F2BB33 		movw	r3, #:lower16:1073759163
 170 002e C4F20003 		movt	r3, #:upper16:1073759163
 171 0032 44F2BB32 		movw	r2, #:lower16:1073759163
 172 0036 C4F20002 		movt	r2, #:upper16:1073759163
 173 003a 1278     		ldrb	r2, [r2, #0]
 174 003c D2B2     		uxtb	r2, r2
 175 003e 42F00202 		orr	r2, r2, #2
 176 0042 D2B2     		uxtb	r2, r2
 177 0044 1A70     		strb	r2, [r3, #0]
 155:.\Generated_Source\PSoC5/MAD_1.c **** 
 156:.\Generated_Source\PSoC5/MAD_1.c ****     /* This is only valid if there is an internal clock */
 157:.\Generated_Source\PSoC5/MAD_1.c ****     #if(MAD_1_DEFAULT_INTERNAL_CLK)
 158:.\Generated_Source\PSoC5/MAD_1.c ****         MAD_1_PWRMGR_CLK_REG |= MAD_1_ACT_PWR_CLK_EN;
 178              		.loc 1 158 0
 179 0046 44F2A133 		movw	r3, #:lower16:1073759137
 180 004a C4F20003 		movt	r3, #:upper16:1073759137
ARM GAS  C:\Users\ISAACS~1\AppData\Local\Temp\ccn2YgzQ.s 			page 7


 181 004e 44F2A132 		movw	r2, #:lower16:1073759137
 182 0052 C4F20002 		movt	r2, #:upper16:1073759137
 183 0056 1278     		ldrb	r2, [r2, #0]
 184 0058 D2B2     		uxtb	r2, r2
 185 005a 42F00202 		orr	r2, r2, #2
 186 005e D2B2     		uxtb	r2, r2
 187 0060 1A70     		strb	r2, [r3, #0]
 159:.\Generated_Source\PSoC5/MAD_1.c ****         MAD_1_STBY_PWRMGR_CLK_REG |= MAD_1_STBY_PWR_CLK_EN;
 188              		.loc 1 159 0
 189 0062 44F2B133 		movw	r3, #:lower16:1073759153
 190 0066 C4F20003 		movt	r3, #:upper16:1073759153
 191 006a 44F2B132 		movw	r2, #:lower16:1073759153
 192 006e C4F20002 		movt	r2, #:upper16:1073759153
 193 0072 1278     		ldrb	r2, [r2, #0]
 194 0074 D2B2     		uxtb	r2, r2
 195 0076 42F00202 		orr	r2, r2, #2
 196 007a D2B2     		uxtb	r2, r2
 197 007c 1A70     		strb	r2, [r3, #0]
 160:.\Generated_Source\PSoC5/MAD_1.c ****     #endif /* End MAD_1_DEFAULT_INTERNAL_CLK */
 161:.\Generated_Source\PSoC5/MAD_1.c **** 
 162:.\Generated_Source\PSoC5/MAD_1.c ****     /* Enable VCM buffer and Enable Int Ref Amp */
 163:.\Generated_Source\PSoC5/MAD_1.c ****     tmpReg = MAD_1_SAR_CSR3_REG;
 198              		.loc 1 163 0
 199 007e 45F60B13 		movw	r3, #:lower16:1073764619
 200 0082 C4F20003 		movt	r3, #:upper16:1073764619
 201 0086 1B78     		ldrb	r3, [r3, #0]
 202 0088 BB71     		strb	r3, [r7, #6]
 164:.\Generated_Source\PSoC5/MAD_1.c ****     #if(CY_PSOC5A) /* Make sure that full power is applied for VREF buffer */
 165:.\Generated_Source\PSoC5/MAD_1.c ****         tmpReg &= (uint8)~MAD_1_SAR_PWR_CTRL_VREF_DIV_BY4;
 203              		.loc 1 165 0
 204 008a BB79     		ldrb	r3, [r7, #6]
 205 008c 23F00C03 		bic	r3, r3, #12
 206 0090 BB71     		strb	r3, [r7, #6]
 166:.\Generated_Source\PSoC5/MAD_1.c ****     #endif /* CY_PSOC5A */
 167:.\Generated_Source\PSoC5/MAD_1.c ****     tmpReg |= MAD_1_SAR_EN_BUF_VCM_EN;
 207              		.loc 1 167 0
 208 0092 BB79     		ldrb	r3, [r7, #6]
 209 0094 43F00203 		orr	r3, r3, #2
 210 0098 BB71     		strb	r3, [r7, #6]
 168:.\Generated_Source\PSoC5/MAD_1.c ****     /* PD_BUF_VREF is OFF in External reference or Vdda reference mode */
 169:.\Generated_Source\PSoC5/MAD_1.c ****     #if((MAD_1_DEFAULT_REFERENCE == MAD_1__EXT_REF) || \
 170:.\Generated_Source\PSoC5/MAD_1.c ****         (MAD_1_DEFAULT_RANGE == MAD_1__VNEG_VDDA_DIFF))
 171:.\Generated_Source\PSoC5/MAD_1.c ****         tmpReg &= (uint8)~MAD_1_SAR_EN_BUF_VREF_EN;
 172:.\Generated_Source\PSoC5/MAD_1.c ****     #else /* In INTREF or INTREF Bypassed this buffer is ON */
 173:.\Generated_Source\PSoC5/MAD_1.c ****         tmpReg |= MAD_1_SAR_EN_BUF_VREF_EN;
 211              		.loc 1 173 0
 212 009a BB79     		ldrb	r3, [r7, #6]
 213 009c 43F00103 		orr	r3, r3, #1
 214 00a0 BB71     		strb	r3, [r7, #6]
 174:.\Generated_Source\PSoC5/MAD_1.c ****     #endif /* MAD_1_DEFAULT_REFERENCE == MAD_1__EXT_REF */
 175:.\Generated_Source\PSoC5/MAD_1.c ****     MAD_1_SAR_CSR3_REG = tmpReg;
 215              		.loc 1 175 0
 216 00a2 45F60B13 		movw	r3, #:lower16:1073764619
 217 00a6 C4F20003 		movt	r3, #:upper16:1073764619
 218 00aa BA79     		ldrb	r2, [r7, #6]
 219 00ac 1A70     		strb	r2, [r3, #0]
 176:.\Generated_Source\PSoC5/MAD_1.c **** 
ARM GAS  C:\Users\ISAACS~1\AppData\Local\Temp\ccn2YgzQ.s 			page 8


 177:.\Generated_Source\PSoC5/MAD_1.c ****     /* Set reference for ADC */
 178:.\Generated_Source\PSoC5/MAD_1.c ****     #if(MAD_1_DEFAULT_RANGE == MAD_1__VNEG_VDDA_DIFF)
 179:.\Generated_Source\PSoC5/MAD_1.c ****         #if(MAD_1_DEFAULT_REFERENCE == MAD_1__EXT_REF)
 180:.\Generated_Source\PSoC5/MAD_1.c ****             MAD_1_SAR_CSR6_REG = MAD_1_INT_BYPASS_EXT_VREF; /* S2 */
 181:.\Generated_Source\PSoC5/MAD_1.c ****         #else /* Internal Vdda reference or obsolete bypass mode */
 182:.\Generated_Source\PSoC5/MAD_1.c ****             MAD_1_SAR_CSR6_REG = MAD_1_VDDA_VREF;           /* S7 */
 183:.\Generated_Source\PSoC5/MAD_1.c ****         #endif /* MAD_1_DEFAULT_REFERENCE == MAD_1__EXT_REF */
 184:.\Generated_Source\PSoC5/MAD_1.c ****     #else  /* Reference goes through internal buffer */
 185:.\Generated_Source\PSoC5/MAD_1.c ****         #if(MAD_1_DEFAULT_REFERENCE == MAD_1__INT_REF_NOT_BYPASSED)
 186:.\Generated_Source\PSoC5/MAD_1.c ****             MAD_1_SAR_CSR6_REG = MAD_1_INT_VREF;            /* S3 + S4 */
 187:.\Generated_Source\PSoC5/MAD_1.c ****         #else /* INTREF Bypassed of External */
 188:.\Generated_Source\PSoC5/MAD_1.c ****             MAD_1_SAR_CSR6_REG = MAD_1_INT_BYPASS_EXT_VREF; /* S2 */
 220              		.loc 1 188 0
 221 00ae 45F60E13 		movw	r3, #:lower16:1073764622
 222 00b2 C4F20003 		movt	r3, #:upper16:1073764622
 223 00b6 4FF00402 		mov	r2, #4
 224 00ba 1A70     		strb	r2, [r3, #0]
 189:.\Generated_Source\PSoC5/MAD_1.c ****         #endif /* MAD_1_DEFAULT_REFERENCE == MAD_1__INT_REF_NOT_BYPASSED */
 190:.\Generated_Source\PSoC5/MAD_1.c ****     #endif /* VNEG_VDDA_DIFF */
 191:.\Generated_Source\PSoC5/MAD_1.c **** 
 192:.\Generated_Source\PSoC5/MAD_1.c ****     /* Low non-overlap delay for sampling clock signals (for 1MSPS) */
 193:.\Generated_Source\PSoC5/MAD_1.c ****     #if(MAD_1_HIGH_POWER_PULSE == 0u) /* MinPulseWidth <= 50 ns */
 194:.\Generated_Source\PSoC5/MAD_1.c ****         MAD_1_SAR_CSR5_REG &= (uint8)~MAD_1_SAR_DLY_INC;
 225              		.loc 1 194 0
 226 00bc 45F60D13 		movw	r3, #:lower16:1073764621
 227 00c0 C4F20003 		movt	r3, #:upper16:1073764621
 228 00c4 45F60D12 		movw	r2, #:lower16:1073764621
 229 00c8 C4F20002 		movt	r2, #:upper16:1073764621
 230 00cc 1278     		ldrb	r2, [r2, #0]
 231 00ce D2B2     		uxtb	r2, r2
 232 00d0 02F0BF02 		and	r2, r2, #191
 233 00d4 1A70     		strb	r2, [r3, #0]
 195:.\Generated_Source\PSoC5/MAD_1.c ****     #else /* Set High non-overlap delay for sampling clock signals (for <500KSPS)*/
 196:.\Generated_Source\PSoC5/MAD_1.c ****         MAD_1_SAR_CSR5_REG |= MAD_1_SAR_DLY_INC;
 197:.\Generated_Source\PSoC5/MAD_1.c ****     #endif /* MAD_1_CLOCK_FREQUENCY > (MAD_1_MAX_FREQUENCY / 2) */
 198:.\Generated_Source\PSoC5/MAD_1.c **** 
 199:.\Generated_Source\PSoC5/MAD_1.c ****      /* Delay control for comparator latch enable, low delay, (Default for 1MSPS) */
 200:.\Generated_Source\PSoC5/MAD_1.c ****     #if(MAD_1_HIGH_POWER_PULSE == 0u) /* MinPulseWidth <= 50 ns */
 201:.\Generated_Source\PSoC5/MAD_1.c ****         MAD_1_SAR_CSR5_REG |= MAD_1_SAR_DCEN;
 234              		.loc 1 201 0
 235 00d6 45F60D13 		movw	r3, #:lower16:1073764621
 236 00da C4F20003 		movt	r3, #:upper16:1073764621
 237 00de 45F60D12 		movw	r2, #:lower16:1073764621
 238 00e2 C4F20002 		movt	r2, #:upper16:1073764621
 239 00e6 1278     		ldrb	r2, [r2, #0]
 240 00e8 D2B2     		uxtb	r2, r2
 241 00ea 42F02002 		orr	r2, r2, #32
 242 00ee D2B2     		uxtb	r2, r2
 243 00f0 1A70     		strb	r2, [r3, #0]
 202:.\Generated_Source\PSoC5/MAD_1.c ****     #else /* Delay control for comparator latch enable, high delay (for <500ksps)*/
 203:.\Generated_Source\PSoC5/MAD_1.c ****         MAD_1_SAR_CSR5_REG &= (uint8)~MAD_1_SAR_DCEN;
 204:.\Generated_Source\PSoC5/MAD_1.c ****     #endif /* MAD_1_CLOCK_FREQUENCY > (MAD_1_MAX_FREQUENCY / 2) */
 205:.\Generated_Source\PSoC5/MAD_1.c **** 
 206:.\Generated_Source\PSoC5/MAD_1.c ****     /* Set default power and other configurations for control register 0 in multiple lines */
 207:.\Generated_Source\PSoC5/MAD_1.c ****     MAD_1_SAR_CSR0_REG = (uint8)((uint8)MAD_1_DEFAULT_POWER << MAD_1_SAR_POWER_SHIFT)
 244              		.loc 1 207 0
 245 00f2 45F60813 		movw	r3, #:lower16:1073764616
ARM GAS  C:\Users\ISAACS~1\AppData\Local\Temp\ccn2YgzQ.s 			page 9


 246 00f6 C4F20003 		movt	r3, #:upper16:1073764616
 247 00fa 4FF00E02 		mov	r2, #14
 248 00fe 1A70     		strb	r2, [r3, #0]
 208:.\Generated_Source\PSoC5/MAD_1.c ****     /* SAR_HIZ_CLEAR:   Should not be used for LP */
 209:.\Generated_Source\PSoC5/MAD_1.c ****     #if ((CY_PSOC5LP) || (MAD_1_DEFAULT_REFERENCE != MAD_1__EXT_REF))
 210:.\Generated_Source\PSoC5/MAD_1.c ****         | MAD_1_SAR_HIZ_CLEAR
 211:.\Generated_Source\PSoC5/MAD_1.c ****     #endif /* SAR_HIZ_CLEAR */
 212:.\Generated_Source\PSoC5/MAD_1.c ****     /*Set Convertion mode */
 213:.\Generated_Source\PSoC5/MAD_1.c ****     #if(MAD_1_DEFAULT_CONV_MODE != MAD_1__FREE_RUNNING)      /* If triggered mode */
 214:.\Generated_Source\PSoC5/MAD_1.c ****         | MAD_1_SAR_MX_SOF_UDB           /* source: UDB */
 215:.\Generated_Source\PSoC5/MAD_1.c ****         | MAD_1_SAR_SOF_MODE_EDGE        /* Set edge-sensitive sof source */
 216:.\Generated_Source\PSoC5/MAD_1.c ****     #endif /* MAD_1_DEFAULT_CONV_MODE */
 217:.\Generated_Source\PSoC5/MAD_1.c ****     ; /* end of multiple line initialization */
 218:.\Generated_Source\PSoC5/MAD_1.c **** 
 219:.\Generated_Source\PSoC5/MAD_1.c ****     /* Enable clock for SAR ADC*/
 220:.\Generated_Source\PSoC5/MAD_1.c ****     MAD_1_SAR_CLK_REG |= MAD_1_SAR_MX_CLK_EN;
 249              		.loc 1 220 0
 250 0100 45F62F33 		movw	r3, #:lower16:1073765167
 251 0104 C4F20003 		movt	r3, #:upper16:1073765167
 252 0108 45F62F32 		movw	r2, #:lower16:1073765167
 253 010c C4F20002 		movt	r2, #:upper16:1073765167
 254 0110 1278     		ldrb	r2, [r2, #0]
 255 0112 D2B2     		uxtb	r2, r2
 256 0114 42F00802 		orr	r2, r2, #8
 257 0118 D2B2     		uxtb	r2, r2
 258 011a 1A70     		strb	r2, [r3, #0]
 221:.\Generated_Source\PSoC5/MAD_1.c **** 
 222:.\Generated_Source\PSoC5/MAD_1.c ****     #if(CY_PSOC5A)
 223:.\Generated_Source\PSoC5/MAD_1.c ****         /* Software Reset */
 224:.\Generated_Source\PSoC5/MAD_1.c ****         MAD_1_SAR_CSR0_REG |= MAD_1_SAR_RESET_SOFT_ACTIVE;
 259              		.loc 1 224 0
 260 011c 45F60813 		movw	r3, #:lower16:1073764616
 261 0120 C4F20003 		movt	r3, #:upper16:1073764616
 262 0124 45F60812 		movw	r2, #:lower16:1073764616
 263 0128 C4F20002 		movt	r2, #:upper16:1073764616
 264 012c 1278     		ldrb	r2, [r2, #0]
 265 012e D2B2     		uxtb	r2, r2
 266 0130 42F02002 		orr	r2, r2, #32
 267 0134 D2B2     		uxtb	r2, r2
 268 0136 1A70     		strb	r2, [r3, #0]
 225:.\Generated_Source\PSoC5/MAD_1.c ****         CyDelayUs(2u); /* 2us delay is required for the lowest 1Mhz clock connected to SAR */
 269              		.loc 1 225 0
 270 0138 4FF00200 		mov	r0, #2
 271 013c FFF7FEFF 		bl	CyDelayUs
 226:.\Generated_Source\PSoC5/MAD_1.c ****         MAD_1_SAR_CSR0_REG &= (uint8)~MAD_1_SAR_RESET_SOFT_ACTIVE;
 272              		.loc 1 226 0
 273 0140 45F60813 		movw	r3, #:lower16:1073764616
 274 0144 C4F20003 		movt	r3, #:upper16:1073764616
 275 0148 45F60812 		movw	r2, #:lower16:1073764616
 276 014c C4F20002 		movt	r2, #:upper16:1073764616
 277 0150 1278     		ldrb	r2, [r2, #0]
 278 0152 D2B2     		uxtb	r2, r2
 279 0154 02F0DF02 		and	r2, r2, #223
 280 0158 1A70     		strb	r2, [r3, #0]
 227:.\Generated_Source\PSoC5/MAD_1.c ****     #else
 228:.\Generated_Source\PSoC5/MAD_1.c ****         CyDelayUs(10u); /* The block is ready to use 10 us after the enable signal is set high. */
 229:.\Generated_Source\PSoC5/MAD_1.c ****     #endif /* End CY_PSOC5A */
ARM GAS  C:\Users\ISAACS~1\AppData\Local\Temp\ccn2YgzQ.s 			page 10


 230:.\Generated_Source\PSoC5/MAD_1.c **** 
 231:.\Generated_Source\PSoC5/MAD_1.c ****     #if(MAD_1_IRQ_REMOVE == 0u)
 232:.\Generated_Source\PSoC5/MAD_1.c ****         /* Clear a pending interrupt */
 233:.\Generated_Source\PSoC5/MAD_1.c ****         CyIntClearPending(MAD_1_INTC_NUMBER);
 281              		.loc 1 233 0
 282 015a 4EF28023 		movw	r3, #:lower16:-536812928
 283 015e CEF20003 		movt	r3, #:upper16:-536812928
 284 0162 4FF00102 		mov	r2, #1
 285 0166 1A60     		str	r2, [r3, #0]
 234:.\Generated_Source\PSoC5/MAD_1.c ****     #endif   /* End MAD_1_IRQ_REMOVE */        
 235:.\Generated_Source\PSoC5/MAD_1.c **** 
 236:.\Generated_Source\PSoC5/MAD_1.c ****     CyExitCriticalSection(enableInterrupts);
 286              		.loc 1 236 0
 287 0168 FB79     		ldrb	r3, [r7, #7]	@ zero_extendqisi2
 288 016a 1846     		mov	r0, r3
 289 016c FFF7FEFF 		bl	CyExitCriticalSection
 237:.\Generated_Source\PSoC5/MAD_1.c **** }
 290              		.loc 1 237 0
 291 0170 07F10807 		add	r7, r7, #8
 292 0174 BD46     		mov	sp, r7
 293 0176 80BD     		pop	{r7, pc}
 294              		.cfi_endproc
 295              	.LFE2:
 296              		.size	MAD_1_Enable, .-MAD_1_Enable
 297              		.section	.text.MAD_1_Stop,"ax",%progbits
 298              		.align	2
 299              		.global	MAD_1_Stop
 300              		.thumb
 301              		.thumb_func
 302              		.type	MAD_1_Stop, %function
 303              	MAD_1_Stop:
 304              	.LFB3:
 238:.\Generated_Source\PSoC5/MAD_1.c **** 
 239:.\Generated_Source\PSoC5/MAD_1.c **** 
 240:.\Generated_Source\PSoC5/MAD_1.c **** /*******************************************************************************
 241:.\Generated_Source\PSoC5/MAD_1.c **** * Function Name: MAD_1_Stop
 242:.\Generated_Source\PSoC5/MAD_1.c **** ********************************************************************************
 243:.\Generated_Source\PSoC5/MAD_1.c **** *
 244:.\Generated_Source\PSoC5/MAD_1.c **** * Summary:
 245:.\Generated_Source\PSoC5/MAD_1.c **** *  Stops convertion and reduce the power to the minimum.
 246:.\Generated_Source\PSoC5/MAD_1.c **** *
 247:.\Generated_Source\PSoC5/MAD_1.c **** * Parameters:
 248:.\Generated_Source\PSoC5/MAD_1.c **** *  None.
 249:.\Generated_Source\PSoC5/MAD_1.c **** *
 250:.\Generated_Source\PSoC5/MAD_1.c **** * Return:
 251:.\Generated_Source\PSoC5/MAD_1.c **** *  None.
 252:.\Generated_Source\PSoC5/MAD_1.c **** *
 253:.\Generated_Source\PSoC5/MAD_1.c **** *******************************************************************************/
 254:.\Generated_Source\PSoC5/MAD_1.c **** void MAD_1_Stop(void)
 255:.\Generated_Source\PSoC5/MAD_1.c **** {
 305              		.loc 1 255 0
 306              		.cfi_startproc
 307              		@ args = 0, pretend = 0, frame = 8
 308              		@ frame_needed = 1, uses_anonymous_args = 0
 309 0000 80B5     		push	{r7, lr}
 310              	.LCFI7:
 311              		.cfi_def_cfa_offset 8
ARM GAS  C:\Users\ISAACS~1\AppData\Local\Temp\ccn2YgzQ.s 			page 11


 312 0002 82B0     		sub	sp, sp, #8
 313              	.LCFI8:
 314              		.cfi_def_cfa_offset 16
 315 0004 00AF     		add	r7, sp, #0
 316              		.cfi_offset 14, -4
 317              		.cfi_offset 7, -8
 318              	.LCFI9:
 319              		.cfi_def_cfa_register 7
 256:.\Generated_Source\PSoC5/MAD_1.c ****     uint8 enableInterrupts;
 257:.\Generated_Source\PSoC5/MAD_1.c ****     enableInterrupts = CyEnterCriticalSection();
 320              		.loc 1 257 0
 321 0006 FFF7FEFF 		bl	CyEnterCriticalSection
 322 000a 0346     		mov	r3, r0
 323 000c FB71     		strb	r3, [r7, #7]
 258:.\Generated_Source\PSoC5/MAD_1.c **** 
 259:.\Generated_Source\PSoC5/MAD_1.c ****     /* Stop all conversions */
 260:.\Generated_Source\PSoC5/MAD_1.c ****     MAD_1_SAR_CSR0_REG &= (uint8)~MAD_1_SAR_SOF_START_CONV;
 324              		.loc 1 260 0
 325 000e 45F60813 		movw	r3, #:lower16:1073764616
 326 0012 C4F20003 		movt	r3, #:upper16:1073764616
 327 0016 45F60812 		movw	r2, #:lower16:1073764616
 328 001a C4F20002 		movt	r2, #:upper16:1073764616
 329 001e 1278     		ldrb	r2, [r2, #0]
 330 0020 D2B2     		uxtb	r2, r2
 331 0022 02F0FE02 		and	r2, r2, #254
 332 0026 1A70     		strb	r2, [r3, #0]
 261:.\Generated_Source\PSoC5/MAD_1.c **** 
 262:.\Generated_Source\PSoC5/MAD_1.c ****     #if(CY_PSOC5A)
 263:.\Generated_Source\PSoC5/MAD_1.c ****         /* Leave the SAR block powered and reduce the power to the minimum */
 264:.\Generated_Source\PSoC5/MAD_1.c ****         MAD_1_SAR_CSR0_REG |= MAD_1_ICONT_LV_3;
 333              		.loc 1 264 0
 334 0028 45F60813 		movw	r3, #:lower16:1073764616
 335 002c C4F20003 		movt	r3, #:upper16:1073764616
 336 0030 45F60812 		movw	r2, #:lower16:1073764616
 337 0034 C4F20002 		movt	r2, #:upper16:1073764616
 338 0038 1278     		ldrb	r2, [r2, #0]
 339 003a D2B2     		uxtb	r2, r2
 340 003c 6FEA8262 		mvn	r2, r2, lsl #26
 341 0040 6FEA9262 		mvn	r2, r2, lsr #26
 342 0044 D2B2     		uxtb	r2, r2
 343 0046 1A70     		strb	r2, [r3, #0]
 265:.\Generated_Source\PSoC5/MAD_1.c ****          /* Disconnect Bypass Cap */
 266:.\Generated_Source\PSoC5/MAD_1.c ****         MAD_1_SAR_CSR6_REG &= (uint8)~MAD_1_INT_BYPASS_EXT_VREF;
 344              		.loc 1 266 0
 345 0048 45F60E13 		movw	r3, #:lower16:1073764622
 346 004c C4F20003 		movt	r3, #:upper16:1073764622
 347 0050 45F60E12 		movw	r2, #:lower16:1073764622
 348 0054 C4F20002 		movt	r2, #:upper16:1073764622
 349 0058 1278     		ldrb	r2, [r2, #0]
 350 005a D2B2     		uxtb	r2, r2
 351 005c 02F0FB02 		and	r2, r2, #251
 352 0060 1A70     		strb	r2, [r3, #0]
 267:.\Generated_Source\PSoC5/MAD_1.c ****         /* Disable reference buffer and reduce the reference power to the minimum */
 268:.\Generated_Source\PSoC5/MAD_1.c ****         MAD_1_SAR_CSR3_REG &= (uint8)~MAD_1_SAR_EN_BUF_VREF_EN; /*VCM buffer is absent in PSOC5A*/
 353              		.loc 1 268 0
 354 0062 45F60B13 		movw	r3, #:lower16:1073764619
 355 0066 C4F20003 		movt	r3, #:upper16:1073764619
ARM GAS  C:\Users\ISAACS~1\AppData\Local\Temp\ccn2YgzQ.s 			page 12


 356 006a 45F60B12 		movw	r2, #:lower16:1073764619
 357 006e C4F20002 		movt	r2, #:upper16:1073764619
 358 0072 1278     		ldrb	r2, [r2, #0]
 359 0074 D2B2     		uxtb	r2, r2
 360 0076 02F0FE02 		and	r2, r2, #254
 361 007a 1A70     		strb	r2, [r3, #0]
 269:.\Generated_Source\PSoC5/MAD_1.c ****         MAD_1_SAR_CSR3_REG |= MAD_1_SAR_PWR_CTRL_VREF_DIV_BY4;
 362              		.loc 1 269 0
 363 007c 45F60B13 		movw	r3, #:lower16:1073764619
 364 0080 C4F20003 		movt	r3, #:upper16:1073764619
 365 0084 45F60B12 		movw	r2, #:lower16:1073764619
 366 0088 C4F20002 		movt	r2, #:upper16:1073764619
 367 008c 1278     		ldrb	r2, [r2, #0]
 368 008e D2B2     		uxtb	r2, r2
 369 0090 42F00C02 		orr	r2, r2, #12
 370 0094 D2B2     		uxtb	r2, r2
 371 0096 1A70     		strb	r2, [r3, #0]
 270:.\Generated_Source\PSoC5/MAD_1.c ****     #else
 271:.\Generated_Source\PSoC5/MAD_1.c ****         /* Disable the SAR ADC block in Active Power Mode */
 272:.\Generated_Source\PSoC5/MAD_1.c ****         MAD_1_PWRMGR_SAR_REG &= (uint8)~MAD_1_ACT_PWR_SAR_EN;
 273:.\Generated_Source\PSoC5/MAD_1.c ****         /* Disable the SAR ADC in Standby Power Mode */
 274:.\Generated_Source\PSoC5/MAD_1.c ****         MAD_1_STBY_PWRMGR_SAR_REG &= (uint8)~MAD_1_STBY_PWR_SAR_EN;
 275:.\Generated_Source\PSoC5/MAD_1.c ****     #endif /* End CY_PSOC5A */
 276:.\Generated_Source\PSoC5/MAD_1.c **** 
 277:.\Generated_Source\PSoC5/MAD_1.c ****     /* This is only valid if there is an internal clock */
 278:.\Generated_Source\PSoC5/MAD_1.c ****     #if(MAD_1_DEFAULT_INTERNAL_CLK)
 279:.\Generated_Source\PSoC5/MAD_1.c ****         MAD_1_PWRMGR_CLK_REG &= (uint8)~MAD_1_ACT_PWR_CLK_EN;
 372              		.loc 1 279 0
 373 0098 44F2A133 		movw	r3, #:lower16:1073759137
 374 009c C4F20003 		movt	r3, #:upper16:1073759137
 375 00a0 44F2A132 		movw	r2, #:lower16:1073759137
 376 00a4 C4F20002 		movt	r2, #:upper16:1073759137
 377 00a8 1278     		ldrb	r2, [r2, #0]
 378 00aa D2B2     		uxtb	r2, r2
 379 00ac 02F0FD02 		and	r2, r2, #253
 380 00b0 1A70     		strb	r2, [r3, #0]
 280:.\Generated_Source\PSoC5/MAD_1.c ****         MAD_1_STBY_PWRMGR_CLK_REG &= (uint8)~MAD_1_STBY_PWR_CLK_EN;
 381              		.loc 1 280 0
 382 00b2 44F2B133 		movw	r3, #:lower16:1073759153
 383 00b6 C4F20003 		movt	r3, #:upper16:1073759153
 384 00ba 44F2B132 		movw	r2, #:lower16:1073759153
 385 00be C4F20002 		movt	r2, #:upper16:1073759153
 386 00c2 1278     		ldrb	r2, [r2, #0]
 387 00c4 D2B2     		uxtb	r2, r2
 388 00c6 02F0FD02 		and	r2, r2, #253
 389 00ca 1A70     		strb	r2, [r3, #0]
 281:.\Generated_Source\PSoC5/MAD_1.c ****     #endif /* End MAD_1_DEFAULT_INTERNAL_CLK */
 282:.\Generated_Source\PSoC5/MAD_1.c **** 
 283:.\Generated_Source\PSoC5/MAD_1.c ****     CyExitCriticalSection(enableInterrupts);
 390              		.loc 1 283 0
 391 00cc FB79     		ldrb	r3, [r7, #7]	@ zero_extendqisi2
 392 00ce 1846     		mov	r0, r3
 393 00d0 FFF7FEFF 		bl	CyExitCriticalSection
 284:.\Generated_Source\PSoC5/MAD_1.c **** 
 285:.\Generated_Source\PSoC5/MAD_1.c **** }
 394              		.loc 1 285 0
 395 00d4 07F10807 		add	r7, r7, #8
ARM GAS  C:\Users\ISAACS~1\AppData\Local\Temp\ccn2YgzQ.s 			page 13


 396 00d8 BD46     		mov	sp, r7
 397 00da 80BD     		pop	{r7, pc}
 398              		.cfi_endproc
 399              	.LFE3:
 400              		.size	MAD_1_Stop, .-MAD_1_Stop
 401              		.section	.text.MAD_1_SetPower,"ax",%progbits
 402              		.align	2
 403              		.global	MAD_1_SetPower
 404              		.thumb
 405              		.thumb_func
 406              		.type	MAD_1_SetPower, %function
 407              	MAD_1_SetPower:
 408              	.LFB4:
 286:.\Generated_Source\PSoC5/MAD_1.c **** 
 287:.\Generated_Source\PSoC5/MAD_1.c **** 
 288:.\Generated_Source\PSoC5/MAD_1.c **** /*******************************************************************************
 289:.\Generated_Source\PSoC5/MAD_1.c **** * Function Name: MAD_1_SetPower
 290:.\Generated_Source\PSoC5/MAD_1.c **** ********************************************************************************
 291:.\Generated_Source\PSoC5/MAD_1.c **** *
 292:.\Generated_Source\PSoC5/MAD_1.c **** * Summary:
 293:.\Generated_Source\PSoC5/MAD_1.c **** *  Sets the Power mode.
 294:.\Generated_Source\PSoC5/MAD_1.c **** *
 295:.\Generated_Source\PSoC5/MAD_1.c **** * Parameters:
 296:.\Generated_Source\PSoC5/MAD_1.c **** *  power:  Power setting for ADC
 297:.\Generated_Source\PSoC5/MAD_1.c **** *  0 ->    Normal
 298:.\Generated_Source\PSoC5/MAD_1.c **** *  1 ->    Half power
 299:.\Generated_Source\PSoC5/MAD_1.c **** *  2 ->    1/3rd power
 300:.\Generated_Source\PSoC5/MAD_1.c **** *  3 ->    Quarter power.
 301:.\Generated_Source\PSoC5/MAD_1.c **** *
 302:.\Generated_Source\PSoC5/MAD_1.c **** * Return:
 303:.\Generated_Source\PSoC5/MAD_1.c **** *  None.
 304:.\Generated_Source\PSoC5/MAD_1.c **** *
 305:.\Generated_Source\PSoC5/MAD_1.c **** *******************************************************************************/
 306:.\Generated_Source\PSoC5/MAD_1.c **** void MAD_1_SetPower(uint8 power)
 307:.\Generated_Source\PSoC5/MAD_1.c **** {
 409              		.loc 1 307 0
 410              		.cfi_startproc
 411              		@ args = 0, pretend = 0, frame = 16
 412              		@ frame_needed = 1, uses_anonymous_args = 0
 413              		@ link register save eliminated.
 414 0000 80B4     		push	{r7}
 415              	.LCFI10:
 416              		.cfi_def_cfa_offset 4
 417 0002 85B0     		sub	sp, sp, #20
 418              	.LCFI11:
 419              		.cfi_def_cfa_offset 24
 420 0004 00AF     		add	r7, sp, #0
 421              		.cfi_offset 7, -4
 422              	.LCFI12:
 423              		.cfi_def_cfa_register 7
 424 0006 0346     		mov	r3, r0
 425 0008 FB71     		strb	r3, [r7, #7]
 308:.\Generated_Source\PSoC5/MAD_1.c ****     uint8 tmpReg;
 309:.\Generated_Source\PSoC5/MAD_1.c **** 
 310:.\Generated_Source\PSoC5/MAD_1.c ****     /* mask off invalid power settings */
 311:.\Generated_Source\PSoC5/MAD_1.c ****     power &= MAD_1_SAR_API_POWER_MASK;
 426              		.loc 1 311 0
ARM GAS  C:\Users\ISAACS~1\AppData\Local\Temp\ccn2YgzQ.s 			page 14


 427 000a FB79     		ldrb	r3, [r7, #7]
 428 000c 03F00303 		and	r3, r3, #3
 429 0010 FB71     		strb	r3, [r7, #7]
 312:.\Generated_Source\PSoC5/MAD_1.c **** 
 313:.\Generated_Source\PSoC5/MAD_1.c ****     /* Set Power parameter  */
 314:.\Generated_Source\PSoC5/MAD_1.c ****     tmpReg = MAD_1_SAR_CSR0_REG & (uint8)~MAD_1_SAR_POWER_MASK;
 430              		.loc 1 314 0
 431 0012 45F60813 		movw	r3, #:lower16:1073764616
 432 0016 C4F20003 		movt	r3, #:upper16:1073764616
 433 001a 1B78     		ldrb	r3, [r3, #0]
 434 001c DBB2     		uxtb	r3, r3
 435 001e 03F03F03 		and	r3, r3, #63
 436 0022 FB73     		strb	r3, [r7, #15]
 315:.\Generated_Source\PSoC5/MAD_1.c ****     tmpReg |= (uint8)(power << MAD_1_SAR_POWER_SHIFT);
 437              		.loc 1 315 0
 438 0024 FB79     		ldrb	r3, [r7, #7]
 439 0026 4FEA8313 		lsl	r3, r3, #6
 440 002a DAB2     		uxtb	r2, r3
 441 002c FB7B     		ldrb	r3, [r7, #15]
 442 002e 42EA0303 		orr	r3, r2, r3
 443 0032 FB73     		strb	r3, [r7, #15]
 316:.\Generated_Source\PSoC5/MAD_1.c ****     MAD_1_SAR_CSR0_REG = tmpReg;
 444              		.loc 1 316 0
 445 0034 45F60813 		movw	r3, #:lower16:1073764616
 446 0038 C4F20003 		movt	r3, #:upper16:1073764616
 447 003c FA7B     		ldrb	r2, [r7, #15]
 448 003e 1A70     		strb	r2, [r3, #0]
 317:.\Generated_Source\PSoC5/MAD_1.c **** }
 449              		.loc 1 317 0
 450 0040 07F11407 		add	r7, r7, #20
 451 0044 BD46     		mov	sp, r7
 452 0046 80BC     		pop	{r7}
 453 0048 7047     		bx	lr
 454              		.cfi_endproc
 455              	.LFE4:
 456              		.size	MAD_1_SetPower, .-MAD_1_SetPower
 457 004a 00BF     		.section	.text.MAD_1_SetResolution,"ax",%progbits
 458              		.align	2
 459              		.global	MAD_1_SetResolution
 460              		.thumb
 461              		.thumb_func
 462              		.type	MAD_1_SetResolution, %function
 463              	MAD_1_SetResolution:
 464              	.LFB5:
 318:.\Generated_Source\PSoC5/MAD_1.c **** 
 319:.\Generated_Source\PSoC5/MAD_1.c **** 
 320:.\Generated_Source\PSoC5/MAD_1.c **** /*******************************************************************************
 321:.\Generated_Source\PSoC5/MAD_1.c **** * Function Name: MAD_1_SetResolution
 322:.\Generated_Source\PSoC5/MAD_1.c **** ********************************************************************************
 323:.\Generated_Source\PSoC5/MAD_1.c **** *
 324:.\Generated_Source\PSoC5/MAD_1.c **** * Summary:
 325:.\Generated_Source\PSoC5/MAD_1.c **** *  Sets the Relution of the SAR.
 326:.\Generated_Source\PSoC5/MAD_1.c **** *  This function does not affect the actual conversion with PSoC5 ES1 silicon.
 327:.\Generated_Source\PSoC5/MAD_1.c **** *
 328:.\Generated_Source\PSoC5/MAD_1.c **** * Parameters:
 329:.\Generated_Source\PSoC5/MAD_1.c **** *  resolution:
 330:.\Generated_Source\PSoC5/MAD_1.c **** *  12 ->    RES12
ARM GAS  C:\Users\ISAACS~1\AppData\Local\Temp\ccn2YgzQ.s 			page 15


 331:.\Generated_Source\PSoC5/MAD_1.c **** *  10 ->    RES10
 332:.\Generated_Source\PSoC5/MAD_1.c **** *  8  ->    RES8
 333:.\Generated_Source\PSoC5/MAD_1.c **** *
 334:.\Generated_Source\PSoC5/MAD_1.c **** * Return:
 335:.\Generated_Source\PSoC5/MAD_1.c **** *  None.
 336:.\Generated_Source\PSoC5/MAD_1.c **** *
 337:.\Generated_Source\PSoC5/MAD_1.c **** * Side Effects:
 338:.\Generated_Source\PSoC5/MAD_1.c **** *  The ADC resolution cannot be changed during a conversion cycle. The
 339:.\Generated_Source\PSoC5/MAD_1.c **** *  recommended best practice is to stop conversions with
 340:.\Generated_Source\PSoC5/MAD_1.c **** *  ADC_StopConvert(), change the resolution, then restart the
 341:.\Generated_Source\PSoC5/MAD_1.c **** *  conversions with ADC_StartConvert().
 342:.\Generated_Source\PSoC5/MAD_1.c **** *  If you decide not to stop conversions before calling this API, you
 343:.\Generated_Source\PSoC5/MAD_1.c **** *  should use ADC_IsEndConversion() to wait until conversion is complete
 344:.\Generated_Source\PSoC5/MAD_1.c **** *  before changing the resolution.
 345:.\Generated_Source\PSoC5/MAD_1.c **** *  If you call ADC_SetResolution() during a conversion, the resolution will
 346:.\Generated_Source\PSoC5/MAD_1.c **** *  not be changed until the current conversion is complete. Data will not be
 347:.\Generated_Source\PSoC5/MAD_1.c **** *  available in the new resolution for another 6 + "New Resolution(in bits)"
 348:.\Generated_Source\PSoC5/MAD_1.c **** *  clock cycles.
 349:.\Generated_Source\PSoC5/MAD_1.c **** *  You may need add a delay of this number of clock cycles after
 350:.\Generated_Source\PSoC5/MAD_1.c **** *  ADC_SetResolution() is called before data is valid again.
 351:.\Generated_Source\PSoC5/MAD_1.c **** *  Affects ADC_CountsTo_Volts(), ADC_CountsTo_mVolts(), and
 352:.\Generated_Source\PSoC5/MAD_1.c **** *  ADC_CountsTo_uVolts() by calculating the correct conversion between ADC
 353:.\Generated_Source\PSoC5/MAD_1.c **** *  counts and the applied input voltage. Calculation depends on resolution,
 354:.\Generated_Source\PSoC5/MAD_1.c **** *  input range, and voltage reference.
 355:.\Generated_Source\PSoC5/MAD_1.c **** *
 356:.\Generated_Source\PSoC5/MAD_1.c **** *******************************************************************************/
 357:.\Generated_Source\PSoC5/MAD_1.c **** void MAD_1_SetResolution(uint8 resolution)
 358:.\Generated_Source\PSoC5/MAD_1.c **** {
 465              		.loc 1 358 0
 466              		.cfi_startproc
 467              		@ args = 0, pretend = 0, frame = 16
 468              		@ frame_needed = 1, uses_anonymous_args = 0
 469 0000 80B5     		push	{r7, lr}
 470              	.LCFI13:
 471              		.cfi_def_cfa_offset 8
 472 0002 84B0     		sub	sp, sp, #16
 473              	.LCFI14:
 474              		.cfi_def_cfa_offset 24
 475 0004 00AF     		add	r7, sp, #0
 476              		.cfi_offset 14, -4
 477              		.cfi_offset 7, -8
 478              	.LCFI15:
 479              		.cfi_def_cfa_register 7
 480 0006 0346     		mov	r3, r0
 481 0008 FB71     		strb	r3, [r7, #7]
 359:.\Generated_Source\PSoC5/MAD_1.c ****     uint8 tmpReg;
 360:.\Generated_Source\PSoC5/MAD_1.c **** 
 361:.\Generated_Source\PSoC5/MAD_1.c ****     /* remember resolution for the GetResult APIs */
 362:.\Generated_Source\PSoC5/MAD_1.c ****     #if(CY_PSOC5A)
 363:.\Generated_Source\PSoC5/MAD_1.c ****         MAD_1_resolution = resolution;
 482              		.loc 1 363 0
 483 000a 40F20003 		movw	r3, #:lower16:MAD_1_resolution
 484 000e C0F20003 		movt	r3, #:upper16:MAD_1_resolution
 485 0012 FA79     		ldrb	r2, [r7, #7]
 486 0014 1A70     		strb	r2, [r3, #0]
 364:.\Generated_Source\PSoC5/MAD_1.c ****     #endif /* End CY_PSOC5A */
 365:.\Generated_Source\PSoC5/MAD_1.c **** 
ARM GAS  C:\Users\ISAACS~1\AppData\Local\Temp\ccn2YgzQ.s 			page 16


 366:.\Generated_Source\PSoC5/MAD_1.c ****     /* Set SAR ADC resolution and sample width: 18 conversion cycles at 12bits + 1 gap */
 367:.\Generated_Source\PSoC5/MAD_1.c ****     switch (resolution)
 487              		.loc 1 367 0
 488 0016 FB79     		ldrb	r3, [r7, #7]	@ zero_extendqisi2
 489 0018 0A2B     		cmp	r3, #10
 490 001a 08D0     		beq	.L15
 491 001c 0C2B     		cmp	r3, #12
 492 001e 02D0     		beq	.L16
 493 0020 082B     		cmp	r3, #8
 494 0022 08D0     		beq	.L14
 495 0024 0BE0     		b	.L19
 496              	.L16:
 368:.\Generated_Source\PSoC5/MAD_1.c ****     {
 369:.\Generated_Source\PSoC5/MAD_1.c ****         case (uint8)MAD_1__BITS_12:
 370:.\Generated_Source\PSoC5/MAD_1.c ****             tmpReg = MAD_1_SAR_RESOLUTION_12BIT | MAD_1_SAR_SAMPLE_WIDTH;
 497              		.loc 1 370 0
 498 0026 6FF03A03 		mvn	r3, #58
 499 002a FB73     		strb	r3, [r7, #15]
 371:.\Generated_Source\PSoC5/MAD_1.c ****             break;
 500              		.loc 1 371 0
 501 002c 0EE0     		b	.L17
 502              	.L15:
 372:.\Generated_Source\PSoC5/MAD_1.c ****         case (uint8)MAD_1__BITS_10:
 373:.\Generated_Source\PSoC5/MAD_1.c ****             /* Use 12bits for PSoC5 production silicon and shift the
 374:.\Generated_Source\PSoC5/MAD_1.c ****             *  results for lower resolution in GetResult16() API
 375:.\Generated_Source\PSoC5/MAD_1.c ****             */
 376:.\Generated_Source\PSoC5/MAD_1.c ****             #if(CY_PSOC5A)
 377:.\Generated_Source\PSoC5/MAD_1.c ****                 tmpReg = MAD_1_SAR_RESOLUTION_12BIT | MAD_1_SAR_SAMPLE_WIDTH;
 503              		.loc 1 377 0
 504 002e 6FF03A03 		mvn	r3, #58
 505 0032 FB73     		strb	r3, [r7, #15]
 378:.\Generated_Source\PSoC5/MAD_1.c ****             #else
 379:.\Generated_Source\PSoC5/MAD_1.c ****                 tmpReg = MAD_1_SAR_RESOLUTION_10BIT | MAD_1_SAR_SAMPLE_WIDTH;
 380:.\Generated_Source\PSoC5/MAD_1.c ****             #endif /* End CY_PSOC5A */
 381:.\Generated_Source\PSoC5/MAD_1.c ****             break;
 506              		.loc 1 381 0
 507 0034 0AE0     		b	.L17
 508              	.L14:
 382:.\Generated_Source\PSoC5/MAD_1.c ****         case (uint8)MAD_1__BITS_8:
 383:.\Generated_Source\PSoC5/MAD_1.c ****             #if(CY_PSOC5A)
 384:.\Generated_Source\PSoC5/MAD_1.c ****                 tmpReg = MAD_1_SAR_RESOLUTION_12BIT | MAD_1_SAR_SAMPLE_WIDTH;
 509              		.loc 1 384 0
 510 0036 6FF03A03 		mvn	r3, #58
 511 003a FB73     		strb	r3, [r7, #15]
 385:.\Generated_Source\PSoC5/MAD_1.c ****             #else
 386:.\Generated_Source\PSoC5/MAD_1.c ****                 tmpReg = MAD_1_SAR_RESOLUTION_8BIT | MAD_1_SAR_SAMPLE_WIDTH;
 387:.\Generated_Source\PSoC5/MAD_1.c ****             #endif /* End CY_PSOC5A */
 388:.\Generated_Source\PSoC5/MAD_1.c ****             break;
 512              		.loc 1 388 0
 513 003c 06E0     		b	.L17
 514              	.L19:
 389:.\Generated_Source\PSoC5/MAD_1.c ****         default:
 390:.\Generated_Source\PSoC5/MAD_1.c ****             tmpReg = MAD_1_SAR_RESOLUTION_12BIT | MAD_1_SAR_SAMPLE_WIDTH;
 515              		.loc 1 390 0
 516 003e 6FF03A03 		mvn	r3, #58
 517 0042 FB73     		strb	r3, [r7, #15]
 391:.\Generated_Source\PSoC5/MAD_1.c ****             /* Halt CPU in debug mode if resolution is out of valid range */
ARM GAS  C:\Users\ISAACS~1\AppData\Local\Temp\ccn2YgzQ.s 			page 17


 392:.\Generated_Source\PSoC5/MAD_1.c ****             CYASSERT(0u != 0u);
 518              		.loc 1 392 0
 519 0044 4FF00000 		mov	r0, #0
 520 0048 FFF7FEFF 		bl	CyHalt
 521              	.L17:
 393:.\Generated_Source\PSoC5/MAD_1.c ****             break;
 394:.\Generated_Source\PSoC5/MAD_1.c ****     }
 395:.\Generated_Source\PSoC5/MAD_1.c ****     MAD_1_SAR_CSR2_REG = tmpReg;
 522              		.loc 1 395 0
 523 004c 45F60A13 		movw	r3, #:lower16:1073764618
 524 0050 C4F20003 		movt	r3, #:upper16:1073764618
 525 0054 FA7B     		ldrb	r2, [r7, #15]
 526 0056 1A70     		strb	r2, [r3, #0]
 396:.\Generated_Source\PSoC5/MAD_1.c **** 
 397:.\Generated_Source\PSoC5/MAD_1.c ****      /* Calculate gain for convert counts to volts */
 398:.\Generated_Source\PSoC5/MAD_1.c ****     MAD_1_CalcGain(resolution);
 527              		.loc 1 398 0
 528 0058 FB79     		ldrb	r3, [r7, #7]	@ zero_extendqisi2
 529 005a 1846     		mov	r0, r3
 530 005c FFF7FEFF 		bl	MAD_1_CalcGain
 399:.\Generated_Source\PSoC5/MAD_1.c **** }
 531              		.loc 1 399 0
 532 0060 07F11007 		add	r7, r7, #16
 533 0064 BD46     		mov	sp, r7
 534 0066 80BD     		pop	{r7, pc}
 535              		.cfi_endproc
 536              	.LFE5:
 537              		.size	MAD_1_SetResolution, .-MAD_1_SetResolution
 538              		.section	.text.MAD_1_StartConvert,"ax",%progbits
 539              		.align	2
 540              		.global	MAD_1_StartConvert
 541              		.thumb
 542              		.thumb_func
 543              		.type	MAD_1_StartConvert, %function
 544              	MAD_1_StartConvert:
 545              	.LFB6:
 400:.\Generated_Source\PSoC5/MAD_1.c **** 
 401:.\Generated_Source\PSoC5/MAD_1.c **** 
 402:.\Generated_Source\PSoC5/MAD_1.c **** #if(MAD_1_DEFAULT_CONV_MODE != MAD_1__HARDWARE_TRIGGER)
 403:.\Generated_Source\PSoC5/MAD_1.c **** 
 404:.\Generated_Source\PSoC5/MAD_1.c **** 
 405:.\Generated_Source\PSoC5/MAD_1.c ****     /*******************************************************************************
 406:.\Generated_Source\PSoC5/MAD_1.c ****     * Function Name: MAD_1_StartConvert
 407:.\Generated_Source\PSoC5/MAD_1.c ****     ********************************************************************************
 408:.\Generated_Source\PSoC5/MAD_1.c ****     *
 409:.\Generated_Source\PSoC5/MAD_1.c ****     * Summary:
 410:.\Generated_Source\PSoC5/MAD_1.c ****     *  Starts ADC conversion using the given mode. The API is available in the 
 411:.\Generated_Source\PSoC5/MAD_1.c ****     *  free running and the software trigger mode.
 412:.\Generated_Source\PSoC5/MAD_1.c ****     *
 413:.\Generated_Source\PSoC5/MAD_1.c ****     * Parameters:
 414:.\Generated_Source\PSoC5/MAD_1.c ****     *  None.
 415:.\Generated_Source\PSoC5/MAD_1.c ****     *
 416:.\Generated_Source\PSoC5/MAD_1.c ****     * Return:
 417:.\Generated_Source\PSoC5/MAD_1.c ****     *  None.
 418:.\Generated_Source\PSoC5/MAD_1.c ****     *
 419:.\Generated_Source\PSoC5/MAD_1.c ****     * Theory:
 420:.\Generated_Source\PSoC5/MAD_1.c ****     *  Forces the ADC to initiate a conversion. In Free Running mode, the ADC will
ARM GAS  C:\Users\ISAACS~1\AppData\Local\Temp\ccn2YgzQ.s 			page 18


 421:.\Generated_Source\PSoC5/MAD_1.c ****     *  run continuously. In a software trigger mode the function also acts as a 
 422:.\Generated_Source\PSoC5/MAD_1.c ****     *  software version of the SOC. Here every conversion has to be triggered by 
 423:.\Generated_Source\PSoC5/MAD_1.c ****     *  the routine. This writes into the SOC bit in SAR_CTRL reg.
 424:.\Generated_Source\PSoC5/MAD_1.c ****     *
 425:.\Generated_Source\PSoC5/MAD_1.c ****     * Side Effects:
 426:.\Generated_Source\PSoC5/MAD_1.c ****     *  In a software trigger mode the function switches source for SOF from the 
 427:.\Generated_Source\PSoC5/MAD_1.c ****     *  external pin to the internal SOF generation. Application should not call 
 428:.\Generated_Source\PSoC5/MAD_1.c ****     *  StartConvert if external source used for SOF.
 429:.\Generated_Source\PSoC5/MAD_1.c ****     *******************************************************************************/
 430:.\Generated_Source\PSoC5/MAD_1.c ****     void MAD_1_StartConvert(void)
 431:.\Generated_Source\PSoC5/MAD_1.c ****     {
 546              		.loc 1 431 0
 547              		.cfi_startproc
 548              		@ args = 0, pretend = 0, frame = 0
 549              		@ frame_needed = 1, uses_anonymous_args = 0
 550              		@ link register save eliminated.
 551 0000 80B4     		push	{r7}
 552              	.LCFI16:
 553              		.cfi_def_cfa_offset 4
 554 0002 00AF     		add	r7, sp, #0
 555              		.cfi_offset 7, -4
 556              	.LCFI17:
 557              		.cfi_def_cfa_register 7
 432:.\Generated_Source\PSoC5/MAD_1.c ****         #if(MAD_1_DEFAULT_CONV_MODE != MAD_1__FREE_RUNNING)  /* If software triggered mode */
 433:.\Generated_Source\PSoC5/MAD_1.c ****             MAD_1_SAR_CSR0_REG &= (uint8)~MAD_1_SAR_MX_SOF_UDB;   /* source: SOF bit */
 558              		.loc 1 433 0
 559 0004 45F60813 		movw	r3, #:lower16:1073764616
 560 0008 C4F20003 		movt	r3, #:upper16:1073764616
 561 000c 45F60812 		movw	r2, #:lower16:1073764616
 562 0010 C4F20002 		movt	r2, #:upper16:1073764616
 563 0014 1278     		ldrb	r2, [r2, #0]
 564 0016 D2B2     		uxtb	r2, r2
 565 0018 02F0FB02 		and	r2, r2, #251
 566 001c 1A70     		strb	r2, [r3, #0]
 434:.\Generated_Source\PSoC5/MAD_1.c ****         #endif /* End MAD_1_DEFAULT_CONV_MODE */
 435:.\Generated_Source\PSoC5/MAD_1.c **** 
 436:.\Generated_Source\PSoC5/MAD_1.c ****         /* Start the conversion */
 437:.\Generated_Source\PSoC5/MAD_1.c ****         MAD_1_SAR_CSR0_REG |= MAD_1_SAR_SOF_START_CONV;
 567              		.loc 1 437 0
 568 001e 45F60813 		movw	r3, #:lower16:1073764616
 569 0022 C4F20003 		movt	r3, #:upper16:1073764616
 570 0026 45F60812 		movw	r2, #:lower16:1073764616
 571 002a C4F20002 		movt	r2, #:upper16:1073764616
 572 002e 1278     		ldrb	r2, [r2, #0]
 573 0030 D2B2     		uxtb	r2, r2
 574 0032 42F00102 		orr	r2, r2, #1
 575 0036 D2B2     		uxtb	r2, r2
 576 0038 1A70     		strb	r2, [r3, #0]
 438:.\Generated_Source\PSoC5/MAD_1.c ****     }
 577              		.loc 1 438 0
 578 003a BD46     		mov	sp, r7
 579 003c 80BC     		pop	{r7}
 580 003e 7047     		bx	lr
 581              		.cfi_endproc
 582              	.LFE6:
 583              		.size	MAD_1_StartConvert, .-MAD_1_StartConvert
 584              		.section	.text.MAD_1_StopConvert,"ax",%progbits
ARM GAS  C:\Users\ISAACS~1\AppData\Local\Temp\ccn2YgzQ.s 			page 19


 585              		.align	2
 586              		.global	MAD_1_StopConvert
 587              		.thumb
 588              		.thumb_func
 589              		.type	MAD_1_StopConvert, %function
 590              	MAD_1_StopConvert:
 591              	.LFB7:
 439:.\Generated_Source\PSoC5/MAD_1.c **** 
 440:.\Generated_Source\PSoC5/MAD_1.c **** 
 441:.\Generated_Source\PSoC5/MAD_1.c ****     /*******************************************************************************
 442:.\Generated_Source\PSoC5/MAD_1.c ****     * Function Name: MAD_1_StopConvert
 443:.\Generated_Source\PSoC5/MAD_1.c ****     ********************************************************************************
 444:.\Generated_Source\PSoC5/MAD_1.c ****     *
 445:.\Generated_Source\PSoC5/MAD_1.c ****     * Summary:
 446:.\Generated_Source\PSoC5/MAD_1.c ****     *  Stops ADC conversion using the given mode. The API is available in the 
 447:.\Generated_Source\PSoC5/MAD_1.c ****     *  free running and the software trigger mode.
 448:.\Generated_Source\PSoC5/MAD_1.c ****     *
 449:.\Generated_Source\PSoC5/MAD_1.c ****     * Parameters:
 450:.\Generated_Source\PSoC5/MAD_1.c ****     *  None.
 451:.\Generated_Source\PSoC5/MAD_1.c ****     *
 452:.\Generated_Source\PSoC5/MAD_1.c ****     * Return:
 453:.\Generated_Source\PSoC5/MAD_1.c ****     *  None.
 454:.\Generated_Source\PSoC5/MAD_1.c ****     *
 455:.\Generated_Source\PSoC5/MAD_1.c ****     * Theory:
 456:.\Generated_Source\PSoC5/MAD_1.c ****     *  Stops ADC conversion in Free Running mode.
 457:.\Generated_Source\PSoC5/MAD_1.c ****     *  This writes into the SOC bit in SAR_CTRL reg.
 458:.\Generated_Source\PSoC5/MAD_1.c ****     *
 459:.\Generated_Source\PSoC5/MAD_1.c ****     * Side Effects:
 460:.\Generated_Source\PSoC5/MAD_1.c ****     *  In a software trigger mode the function set a software version of the SOC 
 461:.\Generated_Source\PSoC5/MAD_1.c ****     *  to low level and switch SOF source to hardware SOF input.
 462:.\Generated_Source\PSoC5/MAD_1.c ****     *
 463:.\Generated_Source\PSoC5/MAD_1.c ****     *******************************************************************************/
 464:.\Generated_Source\PSoC5/MAD_1.c ****     void MAD_1_StopConvert(void)
 465:.\Generated_Source\PSoC5/MAD_1.c ****     {
 592              		.loc 1 465 0
 593              		.cfi_startproc
 594              		@ args = 0, pretend = 0, frame = 0
 595              		@ frame_needed = 1, uses_anonymous_args = 0
 596              		@ link register save eliminated.
 597 0000 80B4     		push	{r7}
 598              	.LCFI18:
 599              		.cfi_def_cfa_offset 4
 600 0002 00AF     		add	r7, sp, #0
 601              		.cfi_offset 7, -4
 602              	.LCFI19:
 603              		.cfi_def_cfa_register 7
 466:.\Generated_Source\PSoC5/MAD_1.c ****         /* Stop all conversions */
 467:.\Generated_Source\PSoC5/MAD_1.c ****         MAD_1_SAR_CSR0_REG &= (uint8)~MAD_1_SAR_SOF_START_CONV;
 604              		.loc 1 467 0
 605 0004 45F60813 		movw	r3, #:lower16:1073764616
 606 0008 C4F20003 		movt	r3, #:upper16:1073764616
 607 000c 45F60812 		movw	r2, #:lower16:1073764616
 608 0010 C4F20002 		movt	r2, #:upper16:1073764616
 609 0014 1278     		ldrb	r2, [r2, #0]
 610 0016 D2B2     		uxtb	r2, r2
 611 0018 02F0FE02 		and	r2, r2, #254
 612 001c 1A70     		strb	r2, [r3, #0]
ARM GAS  C:\Users\ISAACS~1\AppData\Local\Temp\ccn2YgzQ.s 			page 20


 468:.\Generated_Source\PSoC5/MAD_1.c **** 
 469:.\Generated_Source\PSoC5/MAD_1.c ****         #if(MAD_1_DEFAULT_CONV_MODE != MAD_1__FREE_RUNNING)  /* If software triggered mode */
 470:.\Generated_Source\PSoC5/MAD_1.c ****             /* Return source to UDB for hardware SOF signal */
 471:.\Generated_Source\PSoC5/MAD_1.c ****             MAD_1_SAR_CSR0_REG |= MAD_1_SAR_MX_SOF_UDB;    /* source: UDB */
 613              		.loc 1 471 0
 614 001e 45F60813 		movw	r3, #:lower16:1073764616
 615 0022 C4F20003 		movt	r3, #:upper16:1073764616
 616 0026 45F60812 		movw	r2, #:lower16:1073764616
 617 002a C4F20002 		movt	r2, #:upper16:1073764616
 618 002e 1278     		ldrb	r2, [r2, #0]
 619 0030 D2B2     		uxtb	r2, r2
 620 0032 42F00402 		orr	r2, r2, #4
 621 0036 D2B2     		uxtb	r2, r2
 622 0038 1A70     		strb	r2, [r3, #0]
 472:.\Generated_Source\PSoC5/MAD_1.c ****         #endif /* End MAD_1_DEFAULT_CONV_MODE */
 473:.\Generated_Source\PSoC5/MAD_1.c **** 
 474:.\Generated_Source\PSoC5/MAD_1.c ****     }
 623              		.loc 1 474 0
 624 003a BD46     		mov	sp, r7
 625 003c 80BC     		pop	{r7}
 626 003e 7047     		bx	lr
 627              		.cfi_endproc
 628              	.LFE7:
 629              		.size	MAD_1_StopConvert, .-MAD_1_StopConvert
 630              		.section	.text.MAD_1_IsEndConversion,"ax",%progbits
 631              		.align	2
 632              		.global	MAD_1_IsEndConversion
 633              		.thumb
 634              		.thumb_func
 635              		.type	MAD_1_IsEndConversion, %function
 636              	MAD_1_IsEndConversion:
 637              	.LFB8:
 475:.\Generated_Source\PSoC5/MAD_1.c **** 
 476:.\Generated_Source\PSoC5/MAD_1.c **** #endif /* End MAD_1_DEFAULT_CONV_MODE != MAD_1__HARDWARE_TRIGGER */
 477:.\Generated_Source\PSoC5/MAD_1.c **** 
 478:.\Generated_Source\PSoC5/MAD_1.c **** 
 479:.\Generated_Source\PSoC5/MAD_1.c **** /*******************************************************************************
 480:.\Generated_Source\PSoC5/MAD_1.c **** * Function Name: MAD_1_IsEndConversion
 481:.\Generated_Source\PSoC5/MAD_1.c **** ********************************************************************************
 482:.\Generated_Source\PSoC5/MAD_1.c **** *
 483:.\Generated_Source\PSoC5/MAD_1.c **** * Summary:
 484:.\Generated_Source\PSoC5/MAD_1.c **** *  Queries the ADC to see if conversion is complete
 485:.\Generated_Source\PSoC5/MAD_1.c **** *
 486:.\Generated_Source\PSoC5/MAD_1.c **** * Parameters:
 487:.\Generated_Source\PSoC5/MAD_1.c **** *  retMode:  Wait mode,
 488:.\Generated_Source\PSoC5/MAD_1.c **** *   0 if return with answer imediately.
 489:.\Generated_Source\PSoC5/MAD_1.c **** *   1 if wait until conversion is complete, then return.
 490:.\Generated_Source\PSoC5/MAD_1.c **** *
 491:.\Generated_Source\PSoC5/MAD_1.c **** * Return:
 492:.\Generated_Source\PSoC5/MAD_1.c **** *  (uint8)  0 =>  Conversion not complete.
 493:.\Generated_Source\PSoC5/MAD_1.c **** *           1 =>  Conversion complete.
 494:.\Generated_Source\PSoC5/MAD_1.c **** *
 495:.\Generated_Source\PSoC5/MAD_1.c **** *******************************************************************************/
 496:.\Generated_Source\PSoC5/MAD_1.c **** uint8 MAD_1_IsEndConversion(uint8 retMode)
 497:.\Generated_Source\PSoC5/MAD_1.c **** {
 638              		.loc 1 497 0
 639              		.cfi_startproc
ARM GAS  C:\Users\ISAACS~1\AppData\Local\Temp\ccn2YgzQ.s 			page 21


 640              		@ args = 0, pretend = 0, frame = 16
 641              		@ frame_needed = 1, uses_anonymous_args = 0
 642 0000 80B5     		push	{r7, lr}
 643              	.LCFI20:
 644              		.cfi_def_cfa_offset 8
 645 0002 84B0     		sub	sp, sp, #16
 646              	.LCFI21:
 647              		.cfi_def_cfa_offset 24
 648 0004 00AF     		add	r7, sp, #0
 649              		.cfi_offset 14, -4
 650              		.cfi_offset 7, -8
 651              	.LCFI22:
 652              		.cfi_def_cfa_register 7
 653 0006 0346     		mov	r3, r0
 654 0008 FB71     		strb	r3, [r7, #7]
 655              	.L26:
 498:.\Generated_Source\PSoC5/MAD_1.c ****     uint8 status;
 499:.\Generated_Source\PSoC5/MAD_1.c **** 
 500:.\Generated_Source\PSoC5/MAD_1.c ****     do
 501:.\Generated_Source\PSoC5/MAD_1.c ****     {
 502:.\Generated_Source\PSoC5/MAD_1.c ****         status = MAD_1_SAR_CSR1_REG & MAD_1_SAR_EOF_1;
 656              		.loc 1 502 0
 657 000a 45F60913 		movw	r3, #:lower16:1073764617
 658 000e C4F20003 		movt	r3, #:upper16:1073764617
 659 0012 1B78     		ldrb	r3, [r3, #0]
 660 0014 DBB2     		uxtb	r3, r3
 661 0016 03F00103 		and	r3, r3, #1
 662 001a FB73     		strb	r3, [r7, #15]
 503:.\Generated_Source\PSoC5/MAD_1.c ****     } while ((status != MAD_1_SAR_EOF_1) && (retMode == MAD_1_WAIT_FOR_RESULT));
 663              		.loc 1 503 0
 664 001c FB7B     		ldrb	r3, [r7, #15]	@ zero_extendqisi2
 665 001e 012B     		cmp	r3, #1
 666 0020 02D0     		beq	.L25
 667 0022 FB79     		ldrb	r3, [r7, #7]	@ zero_extendqisi2
 668 0024 002B     		cmp	r3, #0
 669 0026 F0D0     		beq	.L26
 670              	.L25:
 504:.\Generated_Source\PSoC5/MAD_1.c ****     /* If convertion complete, wait until EOF bit released */
 505:.\Generated_Source\PSoC5/MAD_1.c ****     if(status == MAD_1_SAR_EOF_1)
 671              		.loc 1 505 0
 672 0028 FB7B     		ldrb	r3, [r7, #15]	@ zero_extendqisi2
 673 002a 012B     		cmp	r3, #1
 674 002c 08D1     		bne	.L27
 506:.\Generated_Source\PSoC5/MAD_1.c ****     {
 507:.\Generated_Source\PSoC5/MAD_1.c ****         /* wait one ADC clock to let the EOC status bit release */
 508:.\Generated_Source\PSoC5/MAD_1.c ****         CyDelayUs(1u);
 675              		.loc 1 508 0
 676 002e 4FF00100 		mov	r0, #1
 677 0032 FFF7FEFF 		bl	CyDelayUs
 509:.\Generated_Source\PSoC5/MAD_1.c ****         /* Do the unconditional read operation of the CSR1 register to make sure the EOC bit has be
 510:.\Generated_Source\PSoC5/MAD_1.c ****         CY_GET_REG8(MAD_1_SAR_CSR1_PTR);
 678              		.loc 1 510 0
 679 0036 45F60913 		movw	r3, #:lower16:1073764617
 680 003a C4F20003 		movt	r3, #:upper16:1073764617
 681 003e 1B78     		ldrb	r3, [r3, #0]
 682              	.L27:
 511:.\Generated_Source\PSoC5/MAD_1.c ****     }
ARM GAS  C:\Users\ISAACS~1\AppData\Local\Temp\ccn2YgzQ.s 			page 22


 512:.\Generated_Source\PSoC5/MAD_1.c **** 
 513:.\Generated_Source\PSoC5/MAD_1.c ****     return(status);
 683              		.loc 1 513 0
 684 0040 FB7B     		ldrb	r3, [r7, #15]	@ zero_extendqisi2
 514:.\Generated_Source\PSoC5/MAD_1.c **** }
 685              		.loc 1 514 0
 686 0042 1846     		mov	r0, r3
 687 0044 07F11007 		add	r7, r7, #16
 688 0048 BD46     		mov	sp, r7
 689 004a 80BD     		pop	{r7, pc}
 690              		.cfi_endproc
 691              	.LFE8:
 692              		.size	MAD_1_IsEndConversion, .-MAD_1_IsEndConversion
 693              		.section	.text.MAD_1_GetResult8,"ax",%progbits
 694              		.align	2
 695              		.global	MAD_1_GetResult8
 696              		.thumb
 697              		.thumb_func
 698              		.type	MAD_1_GetResult8, %function
 699              	MAD_1_GetResult8:
 700              	.LFB9:
 515:.\Generated_Source\PSoC5/MAD_1.c **** 
 516:.\Generated_Source\PSoC5/MAD_1.c **** 
 517:.\Generated_Source\PSoC5/MAD_1.c **** /*******************************************************************************
 518:.\Generated_Source\PSoC5/MAD_1.c **** * Function Name: MAD_1_GetResult8
 519:.\Generated_Source\PSoC5/MAD_1.c **** ********************************************************************************
 520:.\Generated_Source\PSoC5/MAD_1.c **** *
 521:.\Generated_Source\PSoC5/MAD_1.c **** * Summary:
 522:.\Generated_Source\PSoC5/MAD_1.c **** *  Returns an 8-bit result or the LSB of the last conversion.
 523:.\Generated_Source\PSoC5/MAD_1.c **** *  MAD_1_IsEndConversion() should be called to verify that the data
 524:.\Generated_Source\PSoC5/MAD_1.c **** *   sample is ready
 525:.\Generated_Source\PSoC5/MAD_1.c **** *
 526:.\Generated_Source\PSoC5/MAD_1.c **** * Parameters:
 527:.\Generated_Source\PSoC5/MAD_1.c **** *  None.
 528:.\Generated_Source\PSoC5/MAD_1.c **** *
 529:.\Generated_Source\PSoC5/MAD_1.c **** * Return:
 530:.\Generated_Source\PSoC5/MAD_1.c **** *  ADC result.
 531:.\Generated_Source\PSoC5/MAD_1.c **** *
 532:.\Generated_Source\PSoC5/MAD_1.c **** * Global Variables:
 533:.\Generated_Source\PSoC5/MAD_1.c **** *  MAD_1_shift - used to convert the ADC counts to the 2's
 534:.\Generated_Source\PSoC5/MAD_1.c **** *  compliment form.
 535:.\Generated_Source\PSoC5/MAD_1.c **** *  MAD_1_resolution - used to shift the results for lower
 536:.\Generated_Source\PSoC5/MAD_1.c **** *   resolution.
 537:.\Generated_Source\PSoC5/MAD_1.c **** *
 538:.\Generated_Source\PSoC5/MAD_1.c **** *******************************************************************************/
 539:.\Generated_Source\PSoC5/MAD_1.c **** int8 MAD_1_GetResult8( void )
 540:.\Generated_Source\PSoC5/MAD_1.c **** {
 701              		.loc 1 540 0
 702              		.cfi_startproc
 703              		@ args = 0, pretend = 0, frame = 8
 704              		@ frame_needed = 1, uses_anonymous_args = 0
 705              		@ link register save eliminated.
 706 0000 80B4     		push	{r7}
 707              	.LCFI23:
 708              		.cfi_def_cfa_offset 4
 709 0002 83B0     		sub	sp, sp, #12
 710              	.LCFI24:
ARM GAS  C:\Users\ISAACS~1\AppData\Local\Temp\ccn2YgzQ.s 			page 23


 711              		.cfi_def_cfa_offset 16
 712 0004 00AF     		add	r7, sp, #0
 713              		.cfi_offset 7, -4
 714              	.LCFI25:
 715              		.cfi_def_cfa_register 7
 541:.\Generated_Source\PSoC5/MAD_1.c **** 
 542:.\Generated_Source\PSoC5/MAD_1.c ****     #if(CY_PSOC5A)
 543:.\Generated_Source\PSoC5/MAD_1.c **** 
 544:.\Generated_Source\PSoC5/MAD_1.c ****         uint16 res;
 545:.\Generated_Source\PSoC5/MAD_1.c **** 
 546:.\Generated_Source\PSoC5/MAD_1.c ****         res = CY_GET_REG16(MAD_1_SAR_WRK_PTR);
 716              		.loc 1 546 0
 717 0006 45F6A233 		movw	r3, #:lower16:1073765282
 718 000a C4F20003 		movt	r3, #:upper16:1073765282
 719 000e 1B88     		ldrh	r3, [r3, #0]	@ movhi
 720 0010 FB80     		strh	r3, [r7, #6]	@ movhi
 547:.\Generated_Source\PSoC5/MAD_1.c **** 
 548:.\Generated_Source\PSoC5/MAD_1.c ****         /* Use 12bits for PSoC5 production silicon and shift the results for lower resolution in th
 549:.\Generated_Source\PSoC5/MAD_1.c ****         switch (MAD_1_resolution)
 721              		.loc 1 549 0
 722 0012 40F20003 		movw	r3, #:lower16:MAD_1_resolution
 723 0016 C0F20003 		movt	r3, #:upper16:MAD_1_resolution
 724 001a 1B78     		ldrb	r3, [r3, #0]	@ zero_extendqisi2
 725 001c 082B     		cmp	r3, #8
 726 001e 06D0     		beq	.L31
 727 0020 0A2B     		cmp	r3, #10
 728 0022 08D1     		bne	.L30
 729              	.L32:
 550:.\Generated_Source\PSoC5/MAD_1.c ****         {
 551:.\Generated_Source\PSoC5/MAD_1.c ****             case (uint8)MAD_1__BITS_10:
 552:.\Generated_Source\PSoC5/MAD_1.c ****                 res >>= 2u;
 730              		.loc 1 552 0
 731 0024 FB88     		ldrh	r3, [r7, #6]
 732 0026 4FEA9303 		lsr	r3, r3, #2
 733 002a FB80     		strh	r3, [r7, #6]	@ movhi
 553:.\Generated_Source\PSoC5/MAD_1.c ****                 break;
 734              		.loc 1 553 0
 735 002c 03E0     		b	.L30
 736              	.L31:
 554:.\Generated_Source\PSoC5/MAD_1.c ****             case (uint8)MAD_1__BITS_8:
 555:.\Generated_Source\PSoC5/MAD_1.c ****                 res >>= 4u;
 737              		.loc 1 555 0
 738 002e FB88     		ldrh	r3, [r7, #6]
 739 0030 4FEA1313 		lsr	r3, r3, #4
 740 0034 FB80     		strh	r3, [r7, #6]	@ movhi
 741              	.L30:
 556:.\Generated_Source\PSoC5/MAD_1.c ****                 break;
 557:.\Generated_Source\PSoC5/MAD_1.c ****             default: /* Do not shift for 12 bits */
 558:.\Generated_Source\PSoC5/MAD_1.c ****                 break;
 559:.\Generated_Source\PSoC5/MAD_1.c ****         }
 560:.\Generated_Source\PSoC5/MAD_1.c ****         return( (int8)((int16)res - MAD_1_shift) );
 742              		.loc 1 560 0
 743 0036 FB88     		ldrh	r3, [r7, #6]	@ movhi
 744 0038 DAB2     		uxtb	r2, r3
 745 003a 40F20003 		movw	r3, #:lower16:MAD_1_shift
 746 003e C0F20003 		movt	r3, #:upper16:MAD_1_shift
 747 0042 1B88     		ldrh	r3, [r3, #0]	@ movhi
ARM GAS  C:\Users\ISAACS~1\AppData\Local\Temp\ccn2YgzQ.s 			page 24


 748 0044 9BB2     		uxth	r3, r3
 749 0046 DBB2     		uxtb	r3, r3
 750 0048 C3EB0203 		rsb	r3, r3, r2
 751 004c DBB2     		uxtb	r3, r3
 752 004e 5BB2     		sxtb	r3, r3
 561:.\Generated_Source\PSoC5/MAD_1.c ****     #else
 562:.\Generated_Source\PSoC5/MAD_1.c ****         return( (int8)MAD_1_SAR_WRK0_REG - (int8)MAD_1_shift);
 563:.\Generated_Source\PSoC5/MAD_1.c ****     #endif /* End CY_PSOC5A */
 564:.\Generated_Source\PSoC5/MAD_1.c **** 
 565:.\Generated_Source\PSoC5/MAD_1.c **** }
 753              		.loc 1 565 0
 754 0050 1846     		mov	r0, r3
 755 0052 07F10C07 		add	r7, r7, #12
 756 0056 BD46     		mov	sp, r7
 757 0058 80BC     		pop	{r7}
 758 005a 7047     		bx	lr
 759              		.cfi_endproc
 760              	.LFE9:
 761              		.size	MAD_1_GetResult8, .-MAD_1_GetResult8
 762              		.section	.text.MAD_1_GetResult16,"ax",%progbits
 763              		.align	2
 764              		.global	MAD_1_GetResult16
 765              		.thumb
 766              		.thumb_func
 767              		.type	MAD_1_GetResult16, %function
 768              	MAD_1_GetResult16:
 769              	.LFB10:
 566:.\Generated_Source\PSoC5/MAD_1.c **** 
 567:.\Generated_Source\PSoC5/MAD_1.c **** 
 568:.\Generated_Source\PSoC5/MAD_1.c **** /*******************************************************************************
 569:.\Generated_Source\PSoC5/MAD_1.c **** * Function Name: MAD_1_GetResult16
 570:.\Generated_Source\PSoC5/MAD_1.c **** ********************************************************************************
 571:.\Generated_Source\PSoC5/MAD_1.c **** *
 572:.\Generated_Source\PSoC5/MAD_1.c **** * Summary:
 573:.\Generated_Source\PSoC5/MAD_1.c **** *  Gets the data available in the SAR DATA registers.
 574:.\Generated_Source\PSoC5/MAD_1.c **** *  MAD_1_IsEndConversion() should be called to verify that the data
 575:.\Generated_Source\PSoC5/MAD_1.c **** *   sample is ready
 576:.\Generated_Source\PSoC5/MAD_1.c **** *
 577:.\Generated_Source\PSoC5/MAD_1.c **** * Parameters:
 578:.\Generated_Source\PSoC5/MAD_1.c **** *  None.
 579:.\Generated_Source\PSoC5/MAD_1.c **** *
 580:.\Generated_Source\PSoC5/MAD_1.c **** * Return:
 581:.\Generated_Source\PSoC5/MAD_1.c **** *  ADC result. WORD value which has the converted 12bits. In the differential
 582:.\Generated_Source\PSoC5/MAD_1.c **** *  input mode the SAR ADC outputs digitally converted data in binary offset
 583:.\Generated_Source\PSoC5/MAD_1.c **** *  scheme, this function converts the data into 2's compliment form.
 584:.\Generated_Source\PSoC5/MAD_1.c **** *
 585:.\Generated_Source\PSoC5/MAD_1.c **** * Global Variables:
 586:.\Generated_Source\PSoC5/MAD_1.c **** *  MAD_1_shift - used to convert the ADC counts to the 2's
 587:.\Generated_Source\PSoC5/MAD_1.c **** *  compliment form.
 588:.\Generated_Source\PSoC5/MAD_1.c **** *  MAD_1_resolution - used to shift the results for lower
 589:.\Generated_Source\PSoC5/MAD_1.c **** *   resolution.
 590:.\Generated_Source\PSoC5/MAD_1.c **** *
 591:.\Generated_Source\PSoC5/MAD_1.c **** *******************************************************************************/
 592:.\Generated_Source\PSoC5/MAD_1.c **** int16 MAD_1_GetResult16( void )
 593:.\Generated_Source\PSoC5/MAD_1.c **** {
 770              		.loc 1 593 0
 771              		.cfi_startproc
ARM GAS  C:\Users\ISAACS~1\AppData\Local\Temp\ccn2YgzQ.s 			page 25


 772              		@ args = 0, pretend = 0, frame = 8
 773              		@ frame_needed = 1, uses_anonymous_args = 0
 774              		@ link register save eliminated.
 775 0000 80B4     		push	{r7}
 776              	.LCFI26:
 777              		.cfi_def_cfa_offset 4
 778 0002 83B0     		sub	sp, sp, #12
 779              	.LCFI27:
 780              		.cfi_def_cfa_offset 16
 781 0004 00AF     		add	r7, sp, #0
 782              		.cfi_offset 7, -4
 783              	.LCFI28:
 784              		.cfi_def_cfa_register 7
 594:.\Generated_Source\PSoC5/MAD_1.c ****     uint16 res;
 595:.\Generated_Source\PSoC5/MAD_1.c **** 
 596:.\Generated_Source\PSoC5/MAD_1.c ****     res = CY_GET_REG16(MAD_1_SAR_WRK_PTR);
 785              		.loc 1 596 0
 786 0006 45F6A233 		movw	r3, #:lower16:1073765282
 787 000a C4F20003 		movt	r3, #:upper16:1073765282
 788 000e 1B88     		ldrh	r3, [r3, #0]	@ movhi
 789 0010 FB80     		strh	r3, [r7, #6]	@ movhi
 597:.\Generated_Source\PSoC5/MAD_1.c **** 
 598:.\Generated_Source\PSoC5/MAD_1.c ****     #if(CY_PSOC5A)
 599:.\Generated_Source\PSoC5/MAD_1.c ****         /* Use 12bits for PSoC5 production silicon and shift the results for lower resolution in th
 600:.\Generated_Source\PSoC5/MAD_1.c ****         switch (MAD_1_resolution)
 790              		.loc 1 600 0
 791 0012 40F20003 		movw	r3, #:lower16:MAD_1_resolution
 792 0016 C0F20003 		movt	r3, #:upper16:MAD_1_resolution
 793 001a 1B78     		ldrb	r3, [r3, #0]	@ zero_extendqisi2
 794 001c 082B     		cmp	r3, #8
 795 001e 06D0     		beq	.L36
 796 0020 0A2B     		cmp	r3, #10
 797 0022 08D1     		bne	.L35
 798              	.L37:
 601:.\Generated_Source\PSoC5/MAD_1.c ****         {
 602:.\Generated_Source\PSoC5/MAD_1.c ****             case (uint8)MAD_1__BITS_10:
 603:.\Generated_Source\PSoC5/MAD_1.c ****                 res >>= 2u;
 799              		.loc 1 603 0
 800 0024 FB88     		ldrh	r3, [r7, #6]
 801 0026 4FEA9303 		lsr	r3, r3, #2
 802 002a FB80     		strh	r3, [r7, #6]	@ movhi
 604:.\Generated_Source\PSoC5/MAD_1.c ****                 break;
 803              		.loc 1 604 0
 804 002c 03E0     		b	.L35
 805              	.L36:
 605:.\Generated_Source\PSoC5/MAD_1.c ****             case (uint8)MAD_1__BITS_8:
 606:.\Generated_Source\PSoC5/MAD_1.c ****                 res >>= 4u;
 806              		.loc 1 606 0
 807 002e FB88     		ldrh	r3, [r7, #6]
 808 0030 4FEA1313 		lsr	r3, r3, #4
 809 0034 FB80     		strh	r3, [r7, #6]	@ movhi
 810              	.L35:
 607:.\Generated_Source\PSoC5/MAD_1.c ****                 break;
 608:.\Generated_Source\PSoC5/MAD_1.c ****             default: /* Do not shift for 12 bits */
 609:.\Generated_Source\PSoC5/MAD_1.c ****                 break;
 610:.\Generated_Source\PSoC5/MAD_1.c ****         }
 611:.\Generated_Source\PSoC5/MAD_1.c ****     #endif /* End CY_PSOC5A */
ARM GAS  C:\Users\ISAACS~1\AppData\Local\Temp\ccn2YgzQ.s 			page 26


 612:.\Generated_Source\PSoC5/MAD_1.c **** 
 613:.\Generated_Source\PSoC5/MAD_1.c ****     return( (int16)res - MAD_1_shift );
 811              		.loc 1 613 0
 812 0036 40F20003 		movw	r3, #:lower16:MAD_1_shift
 813 003a C0F20003 		movt	r3, #:upper16:MAD_1_shift
 814 003e 1B88     		ldrh	r3, [r3, #0]	@ movhi
 815 0040 9BB2     		uxth	r3, r3
 816 0042 9BB2     		uxth	r3, r3
 817 0044 FA88     		ldrh	r2, [r7, #6]	@ movhi
 818 0046 C3EB0203 		rsb	r3, r3, r2
 819 004a 9BB2     		uxth	r3, r3
 820 004c 1BB2     		sxth	r3, r3
 614:.\Generated_Source\PSoC5/MAD_1.c **** }
 821              		.loc 1 614 0
 822 004e 1846     		mov	r0, r3
 823 0050 07F10C07 		add	r7, r7, #12
 824 0054 BD46     		mov	sp, r7
 825 0056 80BC     		pop	{r7}
 826 0058 7047     		bx	lr
 827              		.cfi_endproc
 828              	.LFE10:
 829              		.size	MAD_1_GetResult16, .-MAD_1_GetResult16
 830 005a 00BF     		.section	.text.MAD_1_SetOffset,"ax",%progbits
 831              		.align	2
 832              		.global	MAD_1_SetOffset
 833              		.thumb
 834              		.thumb_func
 835              		.type	MAD_1_SetOffset, %function
 836              	MAD_1_SetOffset:
 837              	.LFB11:
 615:.\Generated_Source\PSoC5/MAD_1.c **** 
 616:.\Generated_Source\PSoC5/MAD_1.c **** 
 617:.\Generated_Source\PSoC5/MAD_1.c **** /*******************************************************************************
 618:.\Generated_Source\PSoC5/MAD_1.c **** * Function Name: MAD_1_SetOffset
 619:.\Generated_Source\PSoC5/MAD_1.c **** ********************************************************************************
 620:.\Generated_Source\PSoC5/MAD_1.c **** *
 621:.\Generated_Source\PSoC5/MAD_1.c **** * Summary:
 622:.\Generated_Source\PSoC5/MAD_1.c **** *  This function sets the offset for voltage readings.
 623:.\Generated_Source\PSoC5/MAD_1.c **** *
 624:.\Generated_Source\PSoC5/MAD_1.c **** * Parameters:
 625:.\Generated_Source\PSoC5/MAD_1.c **** *  int16: Offset in counts
 626:.\Generated_Source\PSoC5/MAD_1.c **** *
 627:.\Generated_Source\PSoC5/MAD_1.c **** * Return:
 628:.\Generated_Source\PSoC5/MAD_1.c **** *  None.
 629:.\Generated_Source\PSoC5/MAD_1.c **** *
 630:.\Generated_Source\PSoC5/MAD_1.c **** * Global Variables:
 631:.\Generated_Source\PSoC5/MAD_1.c **** *  The MAD_1_offset variable modified. This variable is used for
 632:.\Generated_Source\PSoC5/MAD_1.c **** *  offset calibration purpose.
 633:.\Generated_Source\PSoC5/MAD_1.c **** *  Affects the MAD_1_CountsTo_Volts,
 634:.\Generated_Source\PSoC5/MAD_1.c **** *  MAD_1_CountsTo_mVolts, MAD_1_CountsTo_uVolts functions
 635:.\Generated_Source\PSoC5/MAD_1.c **** *  by subtracting the given offset.
 636:.\Generated_Source\PSoC5/MAD_1.c **** *
 637:.\Generated_Source\PSoC5/MAD_1.c **** *******************************************************************************/
 638:.\Generated_Source\PSoC5/MAD_1.c **** void MAD_1_SetOffset(int16 offset)
 639:.\Generated_Source\PSoC5/MAD_1.c **** {
 838              		.loc 1 639 0
 839              		.cfi_startproc
ARM GAS  C:\Users\ISAACS~1\AppData\Local\Temp\ccn2YgzQ.s 			page 27


 840              		@ args = 0, pretend = 0, frame = 8
 841              		@ frame_needed = 1, uses_anonymous_args = 0
 842              		@ link register save eliminated.
 843 0000 80B4     		push	{r7}
 844              	.LCFI29:
 845              		.cfi_def_cfa_offset 4
 846 0002 83B0     		sub	sp, sp, #12
 847              	.LCFI30:
 848              		.cfi_def_cfa_offset 16
 849 0004 00AF     		add	r7, sp, #0
 850              		.cfi_offset 7, -4
 851              	.LCFI31:
 852              		.cfi_def_cfa_register 7
 853 0006 0346     		mov	r3, r0
 854 0008 FB80     		strh	r3, [r7, #6]	@ movhi
 640:.\Generated_Source\PSoC5/MAD_1.c ****     MAD_1_offset = offset;
 855              		.loc 1 640 0
 856 000a 40F20003 		movw	r3, #:lower16:MAD_1_offset
 857 000e C0F20003 		movt	r3, #:upper16:MAD_1_offset
 858 0012 FA88     		ldrh	r2, [r7, #6]	@ movhi
 859 0014 1A80     		strh	r2, [r3, #0]	@ movhi
 641:.\Generated_Source\PSoC5/MAD_1.c **** }
 860              		.loc 1 641 0
 861 0016 07F10C07 		add	r7, r7, #12
 862 001a BD46     		mov	sp, r7
 863 001c 80BC     		pop	{r7}
 864 001e 7047     		bx	lr
 865              		.cfi_endproc
 866              	.LFE11:
 867              		.size	MAD_1_SetOffset, .-MAD_1_SetOffset
 868              		.section	.text.MAD_1_CalcGain,"ax",%progbits
 869              		.align	2
 870              		.thumb
 871              		.thumb_func
 872              		.type	MAD_1_CalcGain, %function
 873              	MAD_1_CalcGain:
 874              	.LFB12:
 642:.\Generated_Source\PSoC5/MAD_1.c **** 
 643:.\Generated_Source\PSoC5/MAD_1.c **** 
 644:.\Generated_Source\PSoC5/MAD_1.c **** /*******************************************************************************
 645:.\Generated_Source\PSoC5/MAD_1.c **** * Function Name: MAD_1_CalcGain
 646:.\Generated_Source\PSoC5/MAD_1.c **** ********************************************************************************
 647:.\Generated_Source\PSoC5/MAD_1.c **** *
 648:.\Generated_Source\PSoC5/MAD_1.c **** * Summary:
 649:.\Generated_Source\PSoC5/MAD_1.c **** *  This function calculates the ADC gain in counts per volt.
 650:.\Generated_Source\PSoC5/MAD_1.c **** *
 651:.\Generated_Source\PSoC5/MAD_1.c **** * Parameters:
 652:.\Generated_Source\PSoC5/MAD_1.c **** *  uint8: resolution
 653:.\Generated_Source\PSoC5/MAD_1.c **** *
 654:.\Generated_Source\PSoC5/MAD_1.c **** * Return:
 655:.\Generated_Source\PSoC5/MAD_1.c **** *  None.
 656:.\Generated_Source\PSoC5/MAD_1.c **** *
 657:.\Generated_Source\PSoC5/MAD_1.c **** * Global Variables:
 658:.\Generated_Source\PSoC5/MAD_1.c **** *  MAD_1_shift variable initialized. This variable is used to
 659:.\Generated_Source\PSoC5/MAD_1.c **** *  convert the ADC counts to the 2's compliment form.
 660:.\Generated_Source\PSoC5/MAD_1.c **** *  MAD_1_countsPerVolt variable initialized. This variable is used
 661:.\Generated_Source\PSoC5/MAD_1.c **** *  for gain calibration purpose.
ARM GAS  C:\Users\ISAACS~1\AppData\Local\Temp\ccn2YgzQ.s 			page 28


 662:.\Generated_Source\PSoC5/MAD_1.c **** *
 663:.\Generated_Source\PSoC5/MAD_1.c **** *******************************************************************************/
 664:.\Generated_Source\PSoC5/MAD_1.c **** static void MAD_1_CalcGain( uint8 resolution )
 665:.\Generated_Source\PSoC5/MAD_1.c **** {
 875              		.loc 1 665 0
 876              		.cfi_startproc
 877              		@ args = 0, pretend = 0, frame = 16
 878              		@ frame_needed = 1, uses_anonymous_args = 0
 879 0000 80B5     		push	{r7, lr}
 880              	.LCFI32:
 881              		.cfi_def_cfa_offset 8
 882 0002 84B0     		sub	sp, sp, #16
 883              	.LCFI33:
 884              		.cfi_def_cfa_offset 24
 885 0004 00AF     		add	r7, sp, #0
 886              		.cfi_offset 14, -4
 887              		.cfi_offset 7, -8
 888              	.LCFI34:
 889              		.cfi_def_cfa_register 7
 890 0006 0346     		mov	r3, r0
 891 0008 FB71     		strb	r3, [r7, #7]
 666:.\Generated_Source\PSoC5/MAD_1.c ****     int32 counts;
 667:.\Generated_Source\PSoC5/MAD_1.c ****     #if(!((MAD_1_DEFAULT_RANGE == MAD_1__VSS_TO_VREF) || \
 668:.\Generated_Source\PSoC5/MAD_1.c ****          (MAD_1_DEFAULT_RANGE == MAD_1__VSSA_TO_VDDA) || \
 669:.\Generated_Source\PSoC5/MAD_1.c ****          (MAD_1_DEFAULT_RANGE == MAD_1__VSSA_TO_VDAC)) )
 670:.\Generated_Source\PSoC5/MAD_1.c ****         uint16 diff_zero;
 671:.\Generated_Source\PSoC5/MAD_1.c ****     #endif /* End MAD_1_DEFAULT_RANGE */
 672:.\Generated_Source\PSoC5/MAD_1.c **** 
 673:.\Generated_Source\PSoC5/MAD_1.c ****     switch (resolution)
 892              		.loc 1 673 0
 893 000a FB79     		ldrb	r3, [r7, #7]	@ zero_extendqisi2
 894 000c 0A2B     		cmp	r3, #10
 895 000e 08D0     		beq	.L44
 896 0010 0C2B     		cmp	r3, #12
 897 0012 02D0     		beq	.L45
 898 0014 082B     		cmp	r3, #8
 899 0016 08D0     		beq	.L43
 900 0018 0BE0     		b	.L48
 901              	.L45:
 674:.\Generated_Source\PSoC5/MAD_1.c ****     {
 675:.\Generated_Source\PSoC5/MAD_1.c ****         case (uint8)MAD_1__BITS_12:
 676:.\Generated_Source\PSoC5/MAD_1.c ****             counts = (int32)MAD_1_SAR_WRK_MAX;
 902              		.loc 1 676 0
 903 001a 40F6FF73 		movw	r3, #4095
 904 001e FB60     		str	r3, [r7, #12]
 677:.\Generated_Source\PSoC5/MAD_1.c ****             #if(!((MAD_1_DEFAULT_RANGE == MAD_1__VSS_TO_VREF) || \
 678:.\Generated_Source\PSoC5/MAD_1.c ****                  (MAD_1_DEFAULT_RANGE == MAD_1__VSSA_TO_VDDA) || \
 679:.\Generated_Source\PSoC5/MAD_1.c ****                  (MAD_1_DEFAULT_RANGE == MAD_1__VSSA_TO_VDAC)) )
 680:.\Generated_Source\PSoC5/MAD_1.c ****                 diff_zero = MAD_1_SAR_DIFF_SHIFT;
 681:.\Generated_Source\PSoC5/MAD_1.c ****             #endif /* End MAD_1_DEFAULT_RANGE */
 682:.\Generated_Source\PSoC5/MAD_1.c ****             break;
 905              		.loc 1 682 0
 906 0020 0EE0     		b	.L46
 907              	.L44:
 683:.\Generated_Source\PSoC5/MAD_1.c ****         case (uint8)MAD_1__BITS_10:
 684:.\Generated_Source\PSoC5/MAD_1.c ****             counts = (int32)(MAD_1_SAR_WRK_MAX >> 2u);
 908              		.loc 1 684 0
ARM GAS  C:\Users\ISAACS~1\AppData\Local\Temp\ccn2YgzQ.s 			page 29


 909 0022 40F2FF33 		movw	r3, #1023
 910 0026 FB60     		str	r3, [r7, #12]
 685:.\Generated_Source\PSoC5/MAD_1.c ****             #if(!((MAD_1_DEFAULT_RANGE == MAD_1__VSS_TO_VREF) || \
 686:.\Generated_Source\PSoC5/MAD_1.c ****                  (MAD_1_DEFAULT_RANGE == MAD_1__VSSA_TO_VDDA) || \
 687:.\Generated_Source\PSoC5/MAD_1.c ****                  (MAD_1_DEFAULT_RANGE == MAD_1__VSSA_TO_VDAC)) )
 688:.\Generated_Source\PSoC5/MAD_1.c ****                 diff_zero = MAD_1_SAR_DIFF_SHIFT >> 2u;
 689:.\Generated_Source\PSoC5/MAD_1.c ****             #endif /* End MAD_1_DEFAULT_RANGE */
 690:.\Generated_Source\PSoC5/MAD_1.c ****             break;
 911              		.loc 1 690 0
 912 0028 0AE0     		b	.L46
 913              	.L43:
 691:.\Generated_Source\PSoC5/MAD_1.c ****         case (uint8)MAD_1__BITS_8:
 692:.\Generated_Source\PSoC5/MAD_1.c ****             counts = (int32)(MAD_1_SAR_WRK_MAX >> 4u);
 914              		.loc 1 692 0
 915 002a 4FF0FF03 		mov	r3, #255
 916 002e FB60     		str	r3, [r7, #12]
 693:.\Generated_Source\PSoC5/MAD_1.c ****             #if(!((MAD_1_DEFAULT_RANGE == MAD_1__VSS_TO_VREF) || \
 694:.\Generated_Source\PSoC5/MAD_1.c ****                  (MAD_1_DEFAULT_RANGE == MAD_1__VSSA_TO_VDDA) || \
 695:.\Generated_Source\PSoC5/MAD_1.c ****                  (MAD_1_DEFAULT_RANGE == MAD_1__VSSA_TO_VDAC)) )
 696:.\Generated_Source\PSoC5/MAD_1.c ****                 diff_zero = MAD_1_SAR_DIFF_SHIFT >> 4u;
 697:.\Generated_Source\PSoC5/MAD_1.c ****             #endif /* End MAD_1_DEFAULT_RANGE */
 698:.\Generated_Source\PSoC5/MAD_1.c ****             break;
 917              		.loc 1 698 0
 918 0030 06E0     		b	.L46
 919              	.L48:
 699:.\Generated_Source\PSoC5/MAD_1.c ****         default: /* Halt CPU in debug mode if resolution is out of valid range */
 700:.\Generated_Source\PSoC5/MAD_1.c ****             counts = 0;
 920              		.loc 1 700 0
 921 0032 4FF00003 		mov	r3, #0
 922 0036 FB60     		str	r3, [r7, #12]
 701:.\Generated_Source\PSoC5/MAD_1.c ****             #if(!((MAD_1_DEFAULT_RANGE == MAD_1__VSS_TO_VREF) || \
 702:.\Generated_Source\PSoC5/MAD_1.c ****                  (MAD_1_DEFAULT_RANGE == MAD_1__VSSA_TO_VDDA) || \
 703:.\Generated_Source\PSoC5/MAD_1.c ****                  (MAD_1_DEFAULT_RANGE == MAD_1__VSSA_TO_VDAC)) )
 704:.\Generated_Source\PSoC5/MAD_1.c ****                 diff_zero = 0u;
 705:.\Generated_Source\PSoC5/MAD_1.c ****             #endif /* End MAD_1_DEFAULT_RANGE */
 706:.\Generated_Source\PSoC5/MAD_1.c ****             CYASSERT(0u != 0u);
 923              		.loc 1 706 0
 924 0038 4FF00000 		mov	r0, #0
 925 003c FFF7FEFF 		bl	CyHalt
 926              	.L46:
 707:.\Generated_Source\PSoC5/MAD_1.c ****             break;
 708:.\Generated_Source\PSoC5/MAD_1.c ****     }
 709:.\Generated_Source\PSoC5/MAD_1.c ****     counts *= 1000; /* To avoid float point arithmetic*/
 927              		.loc 1 709 0
 928 0040 FB68     		ldr	r3, [r7, #12]
 929 0042 4FF47A72 		mov	r2, #1000
 930 0046 02FB03F3 		mul	r3, r2, r3
 931 004a FB60     		str	r3, [r7, #12]
 710:.\Generated_Source\PSoC5/MAD_1.c ****     MAD_1_countsPerVolt = (int16)(counts / MAD_1_DEFAULT_REF_VOLTAGE_MV / 2);
 932              		.loc 1 710 0
 933 004c FB68     		ldr	r3, [r7, #12]
 934 004e 03F5FE62 		add	r2, r3, #2032
 935 0052 02F10F02 		add	r2, r2, #15
 936 0056 002B     		cmp	r3, #0
 937 0058 B8BF     		it	lt
 938 005a 1346     		movlt	r3, r2
 939 005c 4FEAE323 		asr	r3, r3, #11
ARM GAS  C:\Users\ISAACS~1\AppData\Local\Temp\ccn2YgzQ.s 			page 30


 940 0060 9AB2     		uxth	r2, r3
 941 0062 40F20003 		movw	r3, #:lower16:MAD_1_countsPerVolt
 942 0066 C0F20003 		movt	r3, #:upper16:MAD_1_countsPerVolt
 943 006a 1A80     		strh	r2, [r3, #0]	@ movhi
 711:.\Generated_Source\PSoC5/MAD_1.c **** 
 712:.\Generated_Source\PSoC5/MAD_1.c ****     #if( (MAD_1_DEFAULT_RANGE == MAD_1__VSS_TO_VREF) || \
 713:.\Generated_Source\PSoC5/MAD_1.c ****          (MAD_1_DEFAULT_RANGE == MAD_1__VSSA_TO_VDDA) || \
 714:.\Generated_Source\PSoC5/MAD_1.c ****          (MAD_1_DEFAULT_RANGE == MAD_1__VSSA_TO_VDAC) )
 715:.\Generated_Source\PSoC5/MAD_1.c ****         MAD_1_shift = 0;
 944              		.loc 1 715 0
 945 006c 40F20003 		movw	r3, #:lower16:MAD_1_shift
 946 0070 C0F20003 		movt	r3, #:upper16:MAD_1_shift
 947 0074 4FF00002 		mov	r2, #0
 948 0078 1A80     		strh	r2, [r3, #0]	@ movhi
 716:.\Generated_Source\PSoC5/MAD_1.c ****     #else
 717:.\Generated_Source\PSoC5/MAD_1.c ****         MAD_1_shift = diff_zero;
 718:.\Generated_Source\PSoC5/MAD_1.c ****     #endif /* End MAD_1_DEFAULT_RANGE */
 719:.\Generated_Source\PSoC5/MAD_1.c **** }
 949              		.loc 1 719 0
 950 007a 07F11007 		add	r7, r7, #16
 951 007e BD46     		mov	sp, r7
 952 0080 80BD     		pop	{r7, pc}
 953              		.cfi_endproc
 954              	.LFE12:
 955              		.size	MAD_1_CalcGain, .-MAD_1_CalcGain
 956 0082 00BF     		.section	.text.MAD_1_SetGain,"ax",%progbits
 957              		.align	2
 958              		.global	MAD_1_SetGain
 959              		.thumb
 960              		.thumb_func
 961              		.type	MAD_1_SetGain, %function
 962              	MAD_1_SetGain:
 963              	.LFB13:
 720:.\Generated_Source\PSoC5/MAD_1.c **** 
 721:.\Generated_Source\PSoC5/MAD_1.c **** 
 722:.\Generated_Source\PSoC5/MAD_1.c **** /*******************************************************************************
 723:.\Generated_Source\PSoC5/MAD_1.c **** * Function Name: MAD_1_SetGain
 724:.\Generated_Source\PSoC5/MAD_1.c **** ********************************************************************************
 725:.\Generated_Source\PSoC5/MAD_1.c **** *
 726:.\Generated_Source\PSoC5/MAD_1.c **** * Summary:
 727:.\Generated_Source\PSoC5/MAD_1.c **** *  This function sets the ADC gain in counts per volt.
 728:.\Generated_Source\PSoC5/MAD_1.c **** *
 729:.\Generated_Source\PSoC5/MAD_1.c **** * Parameters:
 730:.\Generated_Source\PSoC5/MAD_1.c **** *  int16  adcGain  counts per volt
 731:.\Generated_Source\PSoC5/MAD_1.c **** *
 732:.\Generated_Source\PSoC5/MAD_1.c **** * Return:
 733:.\Generated_Source\PSoC5/MAD_1.c **** *  None.
 734:.\Generated_Source\PSoC5/MAD_1.c **** *
 735:.\Generated_Source\PSoC5/MAD_1.c **** * Global Variables:
 736:.\Generated_Source\PSoC5/MAD_1.c **** *  MAD_1_countsPerVolt variable modified. This variable is used
 737:.\Generated_Source\PSoC5/MAD_1.c **** *  for gain calibration purpose.
 738:.\Generated_Source\PSoC5/MAD_1.c **** *
 739:.\Generated_Source\PSoC5/MAD_1.c **** *******************************************************************************/
 740:.\Generated_Source\PSoC5/MAD_1.c **** void MAD_1_SetGain(int16 adcGain)
 741:.\Generated_Source\PSoC5/MAD_1.c **** {
 964              		.loc 1 741 0
 965              		.cfi_startproc
ARM GAS  C:\Users\ISAACS~1\AppData\Local\Temp\ccn2YgzQ.s 			page 31


 966              		@ args = 0, pretend = 0, frame = 8
 967              		@ frame_needed = 1, uses_anonymous_args = 0
 968              		@ link register save eliminated.
 969 0000 80B4     		push	{r7}
 970              	.LCFI35:
 971              		.cfi_def_cfa_offset 4
 972 0002 83B0     		sub	sp, sp, #12
 973              	.LCFI36:
 974              		.cfi_def_cfa_offset 16
 975 0004 00AF     		add	r7, sp, #0
 976              		.cfi_offset 7, -4
 977              	.LCFI37:
 978              		.cfi_def_cfa_register 7
 979 0006 0346     		mov	r3, r0
 980 0008 FB80     		strh	r3, [r7, #6]	@ movhi
 742:.\Generated_Source\PSoC5/MAD_1.c ****     MAD_1_countsPerVolt = adcGain;
 981              		.loc 1 742 0
 982 000a 40F20003 		movw	r3, #:lower16:MAD_1_countsPerVolt
 983 000e C0F20003 		movt	r3, #:upper16:MAD_1_countsPerVolt
 984 0012 FA88     		ldrh	r2, [r7, #6]	@ movhi
 985 0014 1A80     		strh	r2, [r3, #0]	@ movhi
 743:.\Generated_Source\PSoC5/MAD_1.c **** }
 986              		.loc 1 743 0
 987 0016 07F10C07 		add	r7, r7, #12
 988 001a BD46     		mov	sp, r7
 989 001c 80BC     		pop	{r7}
 990 001e 7047     		bx	lr
 991              		.cfi_endproc
 992              	.LFE13:
 993              		.size	MAD_1_SetGain, .-MAD_1_SetGain
 994              		.section	.text.MAD_1_CountsTo_mVolts,"ax",%progbits
 995              		.align	2
 996              		.global	MAD_1_CountsTo_mVolts
 997              		.thumb
 998              		.thumb_func
 999              		.type	MAD_1_CountsTo_mVolts, %function
 1000              	MAD_1_CountsTo_mVolts:
 1001              	.LFB14:
 744:.\Generated_Source\PSoC5/MAD_1.c **** 
 745:.\Generated_Source\PSoC5/MAD_1.c **** 
 746:.\Generated_Source\PSoC5/MAD_1.c **** /*******************************************************************************
 747:.\Generated_Source\PSoC5/MAD_1.c **** * Function Name: MAD_1_CountsTo_mVolts
 748:.\Generated_Source\PSoC5/MAD_1.c **** ********************************************************************************
 749:.\Generated_Source\PSoC5/MAD_1.c **** *
 750:.\Generated_Source\PSoC5/MAD_1.c **** * Summary:
 751:.\Generated_Source\PSoC5/MAD_1.c **** *  This function converts ADC counts to mVolts
 752:.\Generated_Source\PSoC5/MAD_1.c **** *
 753:.\Generated_Source\PSoC5/MAD_1.c **** * Parameters:
 754:.\Generated_Source\PSoC5/MAD_1.c **** *  int16  adcCounts   Reading from ADC.
 755:.\Generated_Source\PSoC5/MAD_1.c **** *
 756:.\Generated_Source\PSoC5/MAD_1.c **** * Return:
 757:.\Generated_Source\PSoC5/MAD_1.c **** *  int16  Result in mVolts
 758:.\Generated_Source\PSoC5/MAD_1.c **** *
 759:.\Generated_Source\PSoC5/MAD_1.c **** * Global Variables:
 760:.\Generated_Source\PSoC5/MAD_1.c **** *  MAD_1_offset variable used.
 761:.\Generated_Source\PSoC5/MAD_1.c **** *  MAD_1_countsPerVolt variable used.
 762:.\Generated_Source\PSoC5/MAD_1.c **** *
ARM GAS  C:\Users\ISAACS~1\AppData\Local\Temp\ccn2YgzQ.s 			page 32


 763:.\Generated_Source\PSoC5/MAD_1.c **** *******************************************************************************/
 764:.\Generated_Source\PSoC5/MAD_1.c **** int16 MAD_1_CountsTo_mVolts(int16 adcCounts)
 765:.\Generated_Source\PSoC5/MAD_1.c **** {
 1002              		.loc 1 765 0
 1003              		.cfi_startproc
 1004              		@ args = 0, pretend = 0, frame = 16
 1005              		@ frame_needed = 1, uses_anonymous_args = 0
 1006              		@ link register save eliminated.
 1007 0000 80B4     		push	{r7}
 1008              	.LCFI38:
 1009              		.cfi_def_cfa_offset 4
 1010 0002 85B0     		sub	sp, sp, #20
 1011              	.LCFI39:
 1012              		.cfi_def_cfa_offset 24
 1013 0004 00AF     		add	r7, sp, #0
 1014              		.cfi_offset 7, -4
 1015              	.LCFI40:
 1016              		.cfi_def_cfa_register 7
 1017 0006 0346     		mov	r3, r0
 1018 0008 FB80     		strh	r3, [r7, #6]	@ movhi
 766:.\Generated_Source\PSoC5/MAD_1.c **** 
 767:.\Generated_Source\PSoC5/MAD_1.c ****     int16 mVolts;
 768:.\Generated_Source\PSoC5/MAD_1.c **** 
 769:.\Generated_Source\PSoC5/MAD_1.c ****     /* Subtract ADC offset */
 770:.\Generated_Source\PSoC5/MAD_1.c ****     adcCounts -= MAD_1_offset;
 1019              		.loc 1 770 0
 1020 000a FA88     		ldrh	r2, [r7, #6]
 1021 000c 40F20003 		movw	r3, #:lower16:MAD_1_offset
 1022 0010 C0F20003 		movt	r3, #:upper16:MAD_1_offset
 1023 0014 1B88     		ldrh	r3, [r3, #0]	@ movhi
 1024 0016 9BB2     		uxth	r3, r3
 1025 0018 9BB2     		uxth	r3, r3
 1026 001a C3EB0203 		rsb	r3, r3, r2
 1027 001e 9BB2     		uxth	r3, r3
 1028 0020 FB80     		strh	r3, [r7, #6]	@ movhi
 771:.\Generated_Source\PSoC5/MAD_1.c **** 
 772:.\Generated_Source\PSoC5/MAD_1.c ****     mVolts = (int16)(( (int32)adcCounts * 1000 ) / MAD_1_countsPerVolt) ;
 1029              		.loc 1 772 0
 1030 0022 B7F90630 		ldrsh	r3, [r7, #6]
 1031 0026 4FF47A72 		mov	r2, #1000
 1032 002a 02FB03F2 		mul	r2, r2, r3
 1033 002e 40F20003 		movw	r3, #:lower16:MAD_1_countsPerVolt
 1034 0032 C0F20003 		movt	r3, #:upper16:MAD_1_countsPerVolt
 1035 0036 1B88     		ldrh	r3, [r3, #0]	@ movhi
 1036 0038 9BB2     		uxth	r3, r3
 1037 003a 1BB2     		sxth	r3, r3
 1038 003c 92FBF3F3 		sdiv	r3, r2, r3
 1039 0040 FB81     		strh	r3, [r7, #14]	@ movhi
 773:.\Generated_Source\PSoC5/MAD_1.c **** 
 774:.\Generated_Source\PSoC5/MAD_1.c ****     return( mVolts );
 1040              		.loc 1 774 0
 1041 0042 FB89     		ldrh	r3, [r7, #14]
 1042 0044 1BB2     		sxth	r3, r3
 775:.\Generated_Source\PSoC5/MAD_1.c **** }
 1043              		.loc 1 775 0
 1044 0046 1846     		mov	r0, r3
 1045 0048 07F11407 		add	r7, r7, #20
ARM GAS  C:\Users\ISAACS~1\AppData\Local\Temp\ccn2YgzQ.s 			page 33


 1046 004c BD46     		mov	sp, r7
 1047 004e 80BC     		pop	{r7}
 1048 0050 7047     		bx	lr
 1049              		.cfi_endproc
 1050              	.LFE14:
 1051              		.size	MAD_1_CountsTo_mVolts, .-MAD_1_CountsTo_mVolts
 1052 0052 00BF     		.section	.text.MAD_1_CountsTo_uVolts,"ax",%progbits
 1053              		.align	2
 1054              		.global	MAD_1_CountsTo_uVolts
 1055              		.thumb
 1056              		.thumb_func
 1057              		.type	MAD_1_CountsTo_uVolts, %function
 1058              	MAD_1_CountsTo_uVolts:
 1059              	.LFB15:
 776:.\Generated_Source\PSoC5/MAD_1.c **** 
 777:.\Generated_Source\PSoC5/MAD_1.c **** 
 778:.\Generated_Source\PSoC5/MAD_1.c **** /*******************************************************************************
 779:.\Generated_Source\PSoC5/MAD_1.c **** * Function Name: MAD_1_CountsTo_uVolts
 780:.\Generated_Source\PSoC5/MAD_1.c **** ********************************************************************************
 781:.\Generated_Source\PSoC5/MAD_1.c **** *
 782:.\Generated_Source\PSoC5/MAD_1.c **** * Summary:
 783:.\Generated_Source\PSoC5/MAD_1.c **** *  This function converts ADC counts to micro Volts
 784:.\Generated_Source\PSoC5/MAD_1.c **** *
 785:.\Generated_Source\PSoC5/MAD_1.c **** * Parameters:
 786:.\Generated_Source\PSoC5/MAD_1.c **** *  int16  adcCounts   Reading from ADC.
 787:.\Generated_Source\PSoC5/MAD_1.c **** *
 788:.\Generated_Source\PSoC5/MAD_1.c **** * Return:
 789:.\Generated_Source\PSoC5/MAD_1.c **** *  int32  Result in micro Volts
 790:.\Generated_Source\PSoC5/MAD_1.c **** *
 791:.\Generated_Source\PSoC5/MAD_1.c **** * Global Variables:
 792:.\Generated_Source\PSoC5/MAD_1.c **** *  MAD_1_offset variable used.
 793:.\Generated_Source\PSoC5/MAD_1.c **** *  MAD_1_countsPerVolt variable used.
 794:.\Generated_Source\PSoC5/MAD_1.c **** *
 795:.\Generated_Source\PSoC5/MAD_1.c **** *******************************************************************************/
 796:.\Generated_Source\PSoC5/MAD_1.c **** int32 MAD_1_CountsTo_uVolts(int16 adcCounts)
 797:.\Generated_Source\PSoC5/MAD_1.c **** {
 1060              		.loc 1 797 0
 1061              		.cfi_startproc
 1062              		@ args = 0, pretend = 0, frame = 16
 1063              		@ frame_needed = 1, uses_anonymous_args = 0
 1064              		@ link register save eliminated.
 1065 0000 80B4     		push	{r7}
 1066              	.LCFI41:
 1067              		.cfi_def_cfa_offset 4
 1068 0002 85B0     		sub	sp, sp, #20
 1069              	.LCFI42:
 1070              		.cfi_def_cfa_offset 24
 1071 0004 00AF     		add	r7, sp, #0
 1072              		.cfi_offset 7, -4
 1073              	.LCFI43:
 1074              		.cfi_def_cfa_register 7
 1075 0006 0346     		mov	r3, r0
 1076 0008 FB80     		strh	r3, [r7, #6]	@ movhi
 798:.\Generated_Source\PSoC5/MAD_1.c **** 
 799:.\Generated_Source\PSoC5/MAD_1.c ****     int32 uVolts;
 800:.\Generated_Source\PSoC5/MAD_1.c **** 
 801:.\Generated_Source\PSoC5/MAD_1.c ****     /* Subtract ADC offset */
ARM GAS  C:\Users\ISAACS~1\AppData\Local\Temp\ccn2YgzQ.s 			page 34


 802:.\Generated_Source\PSoC5/MAD_1.c ****     adcCounts -= MAD_1_offset;
 1077              		.loc 1 802 0
 1078 000a FA88     		ldrh	r2, [r7, #6]
 1079 000c 40F20003 		movw	r3, #:lower16:MAD_1_offset
 1080 0010 C0F20003 		movt	r3, #:upper16:MAD_1_offset
 1081 0014 1B88     		ldrh	r3, [r3, #0]	@ movhi
 1082 0016 9BB2     		uxth	r3, r3
 1083 0018 9BB2     		uxth	r3, r3
 1084 001a C3EB0203 		rsb	r3, r3, r2
 1085 001e 9BB2     		uxth	r3, r3
 1086 0020 FB80     		strh	r3, [r7, #6]	@ movhi
 803:.\Generated_Source\PSoC5/MAD_1.c ****     /* To convert adcCounts to microVolts it is required to be multiplied
 804:.\Generated_Source\PSoC5/MAD_1.c ****     *  on 1 million. It is multiplied on 500000 and later on 2 to
 805:.\Generated_Source\PSoC5/MAD_1.c ****     *  to avoid 32bit arithmetic overflows.
 806:.\Generated_Source\PSoC5/MAD_1.c ****     */
 807:.\Generated_Source\PSoC5/MAD_1.c ****     uVolts = (( (int32)adcCounts * 500000 ) / MAD_1_countsPerVolt) * 2;
 1087              		.loc 1 807 0
 1088 0022 B7F90620 		ldrsh	r2, [r7, #6]
 1089 0026 4AF22013 		movw	r3, #:lower16:500000
 1090 002a C0F20703 		movt	r3, #:upper16:500000
 1091 002e 03FB02F2 		mul	r2, r3, r2
 1092 0032 40F20003 		movw	r3, #:lower16:MAD_1_countsPerVolt
 1093 0036 C0F20003 		movt	r3, #:upper16:MAD_1_countsPerVolt
 1094 003a 1B88     		ldrh	r3, [r3, #0]	@ movhi
 1095 003c 9BB2     		uxth	r3, r3
 1096 003e 1BB2     		sxth	r3, r3
 1097 0040 92FBF3F3 		sdiv	r3, r2, r3
 1098 0044 4FEA4303 		lsl	r3, r3, #1
 1099 0048 FB60     		str	r3, [r7, #12]
 808:.\Generated_Source\PSoC5/MAD_1.c **** 
 809:.\Generated_Source\PSoC5/MAD_1.c ****     return( uVolts );
 1100              		.loc 1 809 0
 1101 004a FB68     		ldr	r3, [r7, #12]
 810:.\Generated_Source\PSoC5/MAD_1.c **** }
 1102              		.loc 1 810 0
 1103 004c 1846     		mov	r0, r3
 1104 004e 07F11407 		add	r7, r7, #20
 1105 0052 BD46     		mov	sp, r7
 1106 0054 80BC     		pop	{r7}
 1107 0056 7047     		bx	lr
 1108              		.cfi_endproc
 1109              	.LFE15:
 1110              		.size	MAD_1_CountsTo_uVolts, .-MAD_1_CountsTo_uVolts
 1111              		.global	__aeabi_i2f
 1112              		.global	__aeabi_fdiv
 1113              		.section	.text.MAD_1_CountsTo_Volts,"ax",%progbits
 1114              		.align	2
 1115              		.global	MAD_1_CountsTo_Volts
 1116              		.thumb
 1117              		.thumb_func
 1118              		.type	MAD_1_CountsTo_Volts, %function
 1119              	MAD_1_CountsTo_Volts:
 1120              	.LFB16:
 811:.\Generated_Source\PSoC5/MAD_1.c **** 
 812:.\Generated_Source\PSoC5/MAD_1.c **** 
 813:.\Generated_Source\PSoC5/MAD_1.c **** /*******************************************************************************
 814:.\Generated_Source\PSoC5/MAD_1.c **** * Function Name: MAD_1_CountsTo_Volts
ARM GAS  C:\Users\ISAACS~1\AppData\Local\Temp\ccn2YgzQ.s 			page 35


 815:.\Generated_Source\PSoC5/MAD_1.c **** ********************************************************************************
 816:.\Generated_Source\PSoC5/MAD_1.c **** *
 817:.\Generated_Source\PSoC5/MAD_1.c **** * Summary:
 818:.\Generated_Source\PSoC5/MAD_1.c **** *  This function converts ADC counts to Volts
 819:.\Generated_Source\PSoC5/MAD_1.c **** *
 820:.\Generated_Source\PSoC5/MAD_1.c **** * Parameters:
 821:.\Generated_Source\PSoC5/MAD_1.c **** *  int16  adcCounts   Reading from ADC.
 822:.\Generated_Source\PSoC5/MAD_1.c **** *
 823:.\Generated_Source\PSoC5/MAD_1.c **** * Return:
 824:.\Generated_Source\PSoC5/MAD_1.c **** *  float  Result in mVolts
 825:.\Generated_Source\PSoC5/MAD_1.c **** *
 826:.\Generated_Source\PSoC5/MAD_1.c **** * Global Variables:
 827:.\Generated_Source\PSoC5/MAD_1.c **** *  MAD_1_offset variable used.
 828:.\Generated_Source\PSoC5/MAD_1.c **** *  MAD_1_countsPerVolt variable used.
 829:.\Generated_Source\PSoC5/MAD_1.c **** *
 830:.\Generated_Source\PSoC5/MAD_1.c **** *******************************************************************************/
 831:.\Generated_Source\PSoC5/MAD_1.c **** float32 MAD_1_CountsTo_Volts(int16 adcCounts)
 832:.\Generated_Source\PSoC5/MAD_1.c **** {
 1121              		.loc 1 832 0
 1122              		.cfi_startproc
 1123              		@ args = 0, pretend = 0, frame = 16
 1124              		@ frame_needed = 1, uses_anonymous_args = 0
 1125 0000 90B5     		push	{r4, r7, lr}
 1126              	.LCFI44:
 1127              		.cfi_def_cfa_offset 12
 1128 0002 85B0     		sub	sp, sp, #20
 1129              	.LCFI45:
 1130              		.cfi_def_cfa_offset 32
 1131 0004 00AF     		add	r7, sp, #0
 1132              		.cfi_offset 14, -4
 1133              		.cfi_offset 7, -8
 1134              		.cfi_offset 4, -12
 1135              	.LCFI46:
 1136              		.cfi_def_cfa_register 7
 1137 0006 0346     		mov	r3, r0
 1138 0008 FB80     		strh	r3, [r7, #6]	@ movhi
 833:.\Generated_Source\PSoC5/MAD_1.c ****     float32 volts;
 834:.\Generated_Source\PSoC5/MAD_1.c **** 
 835:.\Generated_Source\PSoC5/MAD_1.c ****     /* Subtract ADC offset */
 836:.\Generated_Source\PSoC5/MAD_1.c ****     adcCounts -= MAD_1_offset;
 1139              		.loc 1 836 0
 1140 000a FA88     		ldrh	r2, [r7, #6]
 1141 000c 40F20003 		movw	r3, #:lower16:MAD_1_offset
 1142 0010 C0F20003 		movt	r3, #:upper16:MAD_1_offset
 1143 0014 1B88     		ldrh	r3, [r3, #0]	@ movhi
 1144 0016 9BB2     		uxth	r3, r3
 1145 0018 9BB2     		uxth	r3, r3
 1146 001a C3EB0203 		rsb	r3, r3, r2
 1147 001e 9BB2     		uxth	r3, r3
 1148 0020 FB80     		strh	r3, [r7, #6]	@ movhi
 837:.\Generated_Source\PSoC5/MAD_1.c **** 
 838:.\Generated_Source\PSoC5/MAD_1.c ****     volts = (float32)adcCounts / (float32)MAD_1_countsPerVolt;
 1149              		.loc 1 838 0
 1150 0022 B7F90630 		ldrsh	r3, [r7, #6]
 1151 0026 1846     		mov	r0, r3
 1152 0028 FFF7FEFF 		bl	__aeabi_i2f
 1153 002c 0446     		mov	r4, r0
ARM GAS  C:\Users\ISAACS~1\AppData\Local\Temp\ccn2YgzQ.s 			page 36


 1154 002e 40F20003 		movw	r3, #:lower16:MAD_1_countsPerVolt
 1155 0032 C0F20003 		movt	r3, #:upper16:MAD_1_countsPerVolt
 1156 0036 1B88     		ldrh	r3, [r3, #0]	@ movhi
 1157 0038 9BB2     		uxth	r3, r3
 1158 003a 1BB2     		sxth	r3, r3
 1159 003c 1846     		mov	r0, r3
 1160 003e FFF7FEFF 		bl	__aeabi_i2f
 1161 0042 0346     		mov	r3, r0
 1162 0044 2046     		mov	r0, r4
 1163 0046 1946     		mov	r1, r3
 1164 0048 FFF7FEFF 		bl	__aeabi_fdiv
 1165 004c 0346     		mov	r3, r0
 1166 004e FB60     		str	r3, [r7, #12]	@ float
 839:.\Generated_Source\PSoC5/MAD_1.c **** 
 840:.\Generated_Source\PSoC5/MAD_1.c ****     return( volts );
 1167              		.loc 1 840 0
 1168 0050 FB68     		ldr	r3, [r7, #12]	@ float
 841:.\Generated_Source\PSoC5/MAD_1.c **** }
 1169              		.loc 1 841 0
 1170 0052 1846     		mov	r0, r3
 1171 0054 07F11407 		add	r7, r7, #20
 1172 0058 BD46     		mov	sp, r7
 1173 005a 90BD     		pop	{r4, r7, pc}
 1174              		.cfi_endproc
 1175              	.LFE16:
 1176              		.size	MAD_1_CountsTo_Volts, .-MAD_1_CountsTo_Volts
 1177              		.text
 1178              	.Letext0: