ARM GAS  C:\Users\ISAACS~1\AppData\Local\Temp\ccQtwPHm.s 			page 1


   1              		.syntax unified
   2              		.cpu cortex-m3
   3              		.fpu softvfp
   4              		.eabi_attribute 20, 1
   5              		.eabi_attribute 21, 1
   6              		.eabi_attribute 23, 3
   7              		.eabi_attribute 24, 1
   8              		.eabi_attribute 25, 1
   9              		.eabi_attribute 26, 1
  10              		.eabi_attribute 30, 6
  11              		.eabi_attribute 18, 4
  12              		.thumb
  13              		.file	"main.c"
  20 0000 EE000000 		.text
  20      02005300 
  20      00000201 
  20      FB0E0D00 
  20      01010101 
  21              	.Ltext0:
  22              		.cfi_sections	.debug_frame
  23              		.comm	adc_value,2,2
  24              		.global	time
  25              		.bss
  26              		.align	2
  27              		.type	time, %object
  28              		.size	time, 4
  29              	time:
  30 0000 00000000 		.space	4
  31              		.comm	tstr,16,4
  32              		.global	M
  33              		.data
  34              		.align	2
  35              		.type	M, %object
  36              		.size	M, 4
  37              	M:
  38 0000 0000E143 		.word	1138819072
  39              		.global	K
  40              		.align	2
  41              		.type	K, %object
  42              		.size	K, 4
  43              	K:
  44 0004 0000803F 		.word	1065353216
  45              		.global	RO
  46              		.align	2
  47              		.type	RO, %object
  48              		.size	RO, 4
  49              	RO:
  50 0008 3D0A973F 		.word	1066863165
  51              		.global	CD
  52              		.align	2
  53              		.type	CD, %object
ARM GAS  C:\Users\ISAACS~1\AppData\Local\Temp\ccQtwPHm.s 			page 2


  54              		.size	CD, 4
  55              	CD:
  56 000c 5C8F023F 		.word	1057132380
  57              		.global	Afr
  58              		.align	2
  59              		.type	Afr, %object
  60              		.size	Afr, 4
  61              	Afr:
  62 0010 9A991940 		.word	1075419546
  63              		.global	C0
  64              		.align	2
  65              		.type	C0, %object
  66              		.size	C0, 4
  67              	C0:
  68 0014 8FC2753C 		.word	1014350479
  69              		.global	C1
  70              		.bss
  71              		.align	2
  72              		.type	C1, %object
  73              		.size	C1, 4
  74              	C1:
  75 0004 00000000 		.space	4
  76              		.global	G
  77              		.data
  78              		.align	2
  79              		.type	G, %object
  80              		.size	G, 4
  81              	G:
  82 0018 C3F51C41 		.word	1092416963
  83              		.global	R
  84              		.align	2
  85              		.type	R, %object
  86              		.size	R, 4
  87              	R:
  88 001c B81E853E 		.word	1048911544
  89              		.global	v_max
  90              		.align	2
  91              		.type	v_max, %object
  92              		.size	v_max, 4
  93              	v_max:
  94 0020 00001643 		.word	1125515264
  95              		.global	tm
  96              		.align	2
  97              		.type	tm, %object
  98              		.size	tm, 4
  99              	tm:
 100 0024 00007A44 		.word	1148846080
 101              		.global	v
 102              		.bss
 103              		.align	2
 104              		.type	v, %object
 105              		.size	v, 4
 106              	v:
 107 0008 00000000 		.space	4
 108              		.global	displayedData
 109              		.align	2
 110              		.type	displayedData, %object
ARM GAS  C:\Users\ISAACS~1\AppData\Local\Temp\ccQtwPHm.s 			page 3


 111              		.size	displayedData, 4
 112              	displayedData:
 113 000c 00000000 		.space	4
 114              		.global	output_voltage
 115              		.align	2
 116              		.type	output_voltage, %object
 117              		.size	output_voltage, 4
 118              	output_voltage:
 119 0010 00000000 		.space	4
 120              		.global	T_INCR
 121              		.data
 122              		.align	2
 123              		.type	T_INCR, %object
 124              		.size	T_INCR, 4
 125              	T_INCR:
 126 0028 CDCCCC3D 		.word	1036831949
 127              		.global	it
 128              		.bss
 129              		.align	2
 130              		.type	it, %object
 131              		.size	it, 4
 132              	it:
 133 0014 00000000 		.space	4
 134              		.global	alpha
 135              		.align	2
 136              		.type	alpha, %object
 137              		.size	alpha, 4
 138              	alpha:
 139 0018 00000000 		.space	4
 140              		.global	__aeabi_fcmpge
 141              		.global	__aeabi_f2uiz
 142              		.global	__aeabi_ui2d
 143              		.global	__aeabi_dmul
 144              		.global	__aeabi_f2d
 145              		.global	__aeabi_ddiv
 146              		.global	__aeabi_d2uiz
 147              		.global	__aeabi_fadd
 148              		.section	.text.sleep,"ax",%progbits
 149              		.align	2
 150              		.global	sleep
 151              		.thumb
 152              		.thumb_func
 153              		.type	sleep, %function
 154              	sleep:
 155              	.LFB29:
 156              		.file 1 ".\\main.c"
   1:.\main.c      **** /* ========================================
   2:.\main.c      ****  *
   3:.\main.c      ****  * Copyright YOUR COMPANY, THE YEAR
   4:.\main.c      ****  * All Rights Reserved
   5:.\main.c      ****  * UNPUBLISHED, LICENSED SOFTWARE.
   6:.\main.c      ****  *
   7:.\main.c      ****  * CONFIDENTIAL AND PROPRIETARY INFORMATION
   8:.\main.c      ****  * WHICH IS THE PROPERTY OF your company.
   9:.\main.c      ****  *
  10:.\main.c      ****  * ========================================
  11:.\main.c      **** */
ARM GAS  C:\Users\ISAACS~1\AppData\Local\Temp\ccQtwPHm.s 			page 4


  12:.\main.c      **** #include <device.h>
  13:.\main.c      **** #include <stdio.h>
  14:.\main.c      **** #include <stdlib.h>
  15:.\main.c      **** #include <math.h>
  16:.\main.c      **** 
  17:.\main.c      **** #define PI 3.14159265358979323846
  18:.\main.c      **** 
  19:.\main.c      **** uint16 adc_value;
  20:.\main.c      **** float time = 0.0;
  21:.\main.c      **** char tstr[16];
  22:.\main.c      **** 
  23:.\main.c      **** float M = 450.0; // Vehicle mass in Kg
  24:.\main.c      **** float K = 1.0; // Seeming mass increase 
  25:.\main.c      **** float RO = 1.18; // Air density
  26:.\main.c      **** float CD = 0.51; // Aerodynamic friction coefficient
  27:.\main.c      **** float Afr = 2.4; // Frontal Area in m^2
  28:.\main.c      **** float C0 = 0.015; // Constant
  29:.\main.c      **** float C1 = 0.0; // Constant
  30:.\main.c      **** float G = 9.81; // Gravity acceleration
  31:.\main.c      **** float R = 0.26; // Wheel radius
  32:.\main.c      **** float v_max = 150.0; // Maximum car speed
  33:.\main.c      **** 
  34:.\main.c      **** volatile float tm = 1000.0; // Motor traction
  35:.\main.c      **** volatile float v = 0.0; // Car velocity
  36:.\main.c      **** 
  37:.\main.c      **** volatile float displayedData = 0;
  38:.\main.c      **** volatile unsigned int output_voltage = 0;
  39:.\main.c      **** 
  40:.\main.c      **** float T_INCR = 0.1; // Time increment: 100ms
  41:.\main.c      **** 
  42:.\main.c      **** volatile float it = 0.0;
  43:.\main.c      **** volatile float alpha = 0.0;
  44:.\main.c      **** 	
  45:.\main.c      **** /*Defining created functions*/
  46:.\main.c      **** int sgn(float x);
  47:.\main.c      **** float vehicle_mod(float tm, float theta, float xAnt);
  48:.\main.c      **** void init(void);
  49:.\main.c      **** 
  50:.\main.c      **** CY_ISR(sleep){
 157              		.loc 1 50 0
 158              		.cfi_startproc
 159              		@ args = 0, pretend = 0, frame = 0
 160              		@ frame_needed = 1, uses_anonymous_args = 0
 161 0000 B0B5     		push	{r4, r5, r7, lr}
 162              	.LCFI0:
 163              		.cfi_def_cfa_offset 16
 164 0002 00AF     		add	r7, sp, #0
 165              		.cfi_offset 14, -4
 166              		.cfi_offset 7, -8
 167              		.cfi_offset 5, -12
 168              		.cfi_offset 4, -16
 169              	.LCFI1:
 170              		.cfi_def_cfa_register 7
  51:.\main.c      **** 	//INICIA O PROCESSAMENTO
  52:.\main.c      **** 	PINO_PROCESSAMENTO_Write( 1 );
 171              		.loc 1 52 0
 172 0004 4FF00100 		mov	r0, #1
ARM GAS  C:\Users\ISAACS~1\AppData\Local\Temp\ccQtwPHm.s 			page 5


 173 0008 FFF7FEFF 		bl	PINO_PROCESSAMENTO_Write
  53:.\main.c      **** 	
  54:.\main.c      **** 	// ESCREVE NO DA
  55:.\main.c      **** 	MSG_1_SetValue( (unsigned int) output_voltage);
 174              		.loc 1 55 0
 175 000c 40F20003 		movw	r3, #:lower16:output_voltage
 176 0010 C0F20003 		movt	r3, #:upper16:output_voltage
 177 0014 1B68     		ldr	r3, [r3, #0]
 178 0016 DBB2     		uxtb	r3, r3
 179 0018 1846     		mov	r0, r3
 180 001a FFF7FEFF 		bl	MSG_1_SetValue
  56:.\main.c      **** 	
  57:.\main.c      **** 	// ESPERA PELA LEITURA DOS ADs
  58:.\main.c      **** 	/*MAD_1_StartConvert();
  59:.\main.c      **** 	MAD_1_IsEndConversion(MAD_1_WAIT_FOR_RESULT);
  60:.\main.c      **** 	MAD_2_StartConvert();
  61:.\main.c      **** 	MAD_2_IsEndConversion(MAD_2_WAIT_FOR_RESULT);*/
  62:.\main.c      **** 	
  63:.\main.c      **** 	// CONVERTE O VALOR INTEIRO LIDO EM VALOR COM UNIDADE
  64:.\main.c      **** 	/*tm = ((float) MAD_1_GetResult16())*2000.0/4096.0; //TM MAX: 2000.0 N*M
  65:.\main.c      **** 	alpha = ((float) MAD_2_GetResult16())*(PI/4.0)/4096.0; // ALFA MAX: PI/4 RAD*/
  66:.\main.c      **** 	if (it >= 30.0){
 181              		.loc 1 66 0
 182 001e 40F20003 		movw	r3, #:lower16:it
 183 0022 C0F20003 		movt	r3, #:upper16:it
 184 0026 1B68     		ldr	r3, [r3, #0]	@ float
 185 0028 4FF00002 		mov	r2, #0
 186 002c 1446     		mov	r4, r2
 187 002e 1846     		mov	r0, r3
 188 0030 4B49     		ldr	r1, .L7+8	@ float
 189 0032 FFF7FEFF 		bl	__aeabi_fcmpge
 190 0036 0346     		mov	r3, r0
 191 0038 002B     		cmp	r3, #0
 192 003a 02D0     		beq	.L2
 193              	.L3:
 194 003c 4FF00103 		mov	r3, #1
 195 0040 1C46     		mov	r4, r3
 196              	.L2:
 197 0042 E3B2     		uxtb	r3, r4
 198 0044 002B     		cmp	r3, #0
 199 0046 05D0     		beq	.L4
  67:.\main.c      **** 		tm = 2000.0;
 200              		.loc 1 67 0
 201 0048 40F20003 		movw	r3, #:lower16:tm
 202 004c C0F20003 		movt	r3, #:upper16:tm
 203 0050 444A     		ldr	r2, .L7+12	@ float
 204 0052 1A60     		str	r2, [r3, #0]	@ float
 205              	.L4:
  68:.\main.c      **** 	}
  69:.\main.c      **** 	
  70:.\main.c      **** 	// CALCULA O VALOR DA ALTURA
  71:.\main.c      **** 	v = vehicle_mod(tm, alpha, v);
 206              		.loc 1 71 0
 207 0054 40F20003 		movw	r3, #:lower16:tm
 208 0058 C0F20003 		movt	r3, #:upper16:tm
 209 005c 1968     		ldr	r1, [r3, #0]	@ float
 210 005e 40F20003 		movw	r3, #:lower16:alpha
ARM GAS  C:\Users\ISAACS~1\AppData\Local\Temp\ccQtwPHm.s 			page 6


 211 0062 C0F20003 		movt	r3, #:upper16:alpha
 212 0066 1A68     		ldr	r2, [r3, #0]	@ float
 213 0068 40F20003 		movw	r3, #:lower16:v
 214 006c C0F20003 		movt	r3, #:upper16:v
 215 0070 1B68     		ldr	r3, [r3, #0]	@ float
 216 0072 0846     		mov	r0, r1
 217 0074 1146     		mov	r1, r2
 218 0076 1A46     		mov	r2, r3
 219 0078 FFF7FEFF 		bl	vehicle_mod
 220 007c 0246     		mov	r2, r0
 221 007e 40F20003 		movw	r3, #:lower16:v
 222 0082 C0F20003 		movt	r3, #:upper16:v
 223 0086 1A60     		str	r2, [r3, #0]	@ float
  72:.\main.c      **** 	displayedData = v;
 224              		.loc 1 72 0
 225 0088 40F20003 		movw	r3, #:lower16:v
 226 008c C0F20003 		movt	r3, #:upper16:v
 227 0090 1A68     		ldr	r2, [r3, #0]	@ float
 228 0092 40F20003 		movw	r3, #:lower16:displayedData
 229 0096 C0F20003 		movt	r3, #:upper16:displayedData
 230 009a 1A60     		str	r2, [r3, #0]	@ float
  73:.\main.c      **** 	output_voltage = (unsigned int) displayedData*254.0/v_max;
 231              		.loc 1 73 0
 232 009c 40F20003 		movw	r3, #:lower16:displayedData
 233 00a0 C0F20003 		movt	r3, #:upper16:displayedData
 234 00a4 1B68     		ldr	r3, [r3, #0]	@ float
 235 00a6 1846     		mov	r0, r3
 236 00a8 FFF7FEFF 		bl	__aeabi_f2uiz
 237 00ac 0346     		mov	r3, r0
 238 00ae 1846     		mov	r0, r3
 239 00b0 FFF7FEFF 		bl	__aeabi_ui2d
 240 00b4 0246     		mov	r2, r0
 241 00b6 0B46     		mov	r3, r1
 242 00b8 1046     		mov	r0, r2
 243 00ba 1946     		mov	r1, r3
 244 00bc 26A3     		adr	r3, .L7
 245 00be D3E90023 		ldrd	r2, [r3]
 246 00c2 FFF7FEFF 		bl	__aeabi_dmul
 247 00c6 0246     		mov	r2, r0
 248 00c8 0B46     		mov	r3, r1
 249 00ca 1446     		mov	r4, r2
 250 00cc 1D46     		mov	r5, r3
 251 00ce 40F20003 		movw	r3, #:lower16:v_max
 252 00d2 C0F20003 		movt	r3, #:upper16:v_max
 253 00d6 1B68     		ldr	r3, [r3, #0]	@ float
 254 00d8 1846     		mov	r0, r3
 255 00da FFF7FEFF 		bl	__aeabi_f2d
 256 00de 0246     		mov	r2, r0
 257 00e0 0B46     		mov	r3, r1
 258 00e2 2046     		mov	r0, r4
 259 00e4 2946     		mov	r1, r5
 260 00e6 FFF7FEFF 		bl	__aeabi_ddiv
 261 00ea 0246     		mov	r2, r0
 262 00ec 0B46     		mov	r3, r1
 263 00ee 1046     		mov	r0, r2
 264 00f0 1946     		mov	r1, r3
 265 00f2 FFF7FEFF 		bl	__aeabi_d2uiz
ARM GAS  C:\Users\ISAACS~1\AppData\Local\Temp\ccQtwPHm.s 			page 7


 266 00f6 0246     		mov	r2, r0
 267 00f8 40F20003 		movw	r3, #:lower16:output_voltage
 268 00fc C0F20003 		movt	r3, #:upper16:output_voltage
 269 0100 1A60     		str	r2, [r3, #0]
  74:.\main.c      **** 	if (output_voltage>254){
 270              		.loc 1 74 0
 271 0102 40F20003 		movw	r3, #:lower16:output_voltage
 272 0106 C0F20003 		movt	r3, #:upper16:output_voltage
 273 010a 1B68     		ldr	r3, [r3, #0]
 274 010c FE2B     		cmp	r3, #254
 275 010e 06D9     		bls	.L5
  75:.\main.c      **** 		output_voltage = 254;
 276              		.loc 1 75 0
 277 0110 40F20003 		movw	r3, #:lower16:output_voltage
 278 0114 C0F20003 		movt	r3, #:upper16:output_voltage
 279 0118 4FF0FE02 		mov	r2, #254
 280 011c 1A60     		str	r2, [r3, #0]
 281              	.L5:
  76:.\main.c      **** 	}
  77:.\main.c      **** 		
  78:.\main.c      **** 	it += T_INCR;
 282              		.loc 1 78 0
 283 011e 40F20003 		movw	r3, #:lower16:it
 284 0122 C0F20003 		movt	r3, #:upper16:it
 285 0126 1A68     		ldr	r2, [r3, #0]	@ float
 286 0128 40F20003 		movw	r3, #:lower16:T_INCR
 287 012c C0F20003 		movt	r3, #:upper16:T_INCR
 288 0130 1B68     		ldr	r3, [r3, #0]	@ float
 289 0132 1046     		mov	r0, r2
 290 0134 1946     		mov	r1, r3
 291 0136 FFF7FEFF 		bl	__aeabi_fadd
 292 013a 0346     		mov	r3, r0
 293 013c 1A46     		mov	r2, r3
 294 013e 40F20003 		movw	r3, #:lower16:it
 295 0142 C0F20003 		movt	r3, #:upper16:it
 296 0146 1A60     		str	r2, [r3, #0]	@ float
  79:.\main.c      **** 	
  80:.\main.c      **** 	// FIM DO PROCESSAMENTO
  81:.\main.c      **** 	PINO_PROCESSAMENTO_Write( 0 );
 297              		.loc 1 81 0
 298 0148 4FF00000 		mov	r0, #0
 299 014c FFF7FEFF 		bl	PINO_PROCESSAMENTO_Write
  82:.\main.c      **** }
 300              		.loc 1 82 0
 301 0150 B0BD     		pop	{r4, r5, r7, pc}
 302              	.L8:
 303 0152 00BFAFF3 		.align	3
 303      0080
 304              	.L7:
 305 0158 00000000 		.word	0
 306 015c 00C06F40 		.word	1081065472
 307 0160 0000F041 		.word	1106247680
 308 0164 0000FA44 		.word	1157234688
 309              		.cfi_endproc
 310              	.LFE29:
 311              		.size	sleep, .-sleep
 312              		.section	.text.init,"ax",%progbits
ARM GAS  C:\Users\ISAACS~1\AppData\Local\Temp\ccQtwPHm.s 			page 8


 313              		.align	2
 314              		.global	init
 315              		.thumb
 316              		.thumb_func
 317              		.type	init, %function
 318              	init:
 319              	.LFB30:
  83:.\main.c      **** 
  84:.\main.c      **** void init(){
 320              		.loc 1 84 0
 321              		.cfi_startproc
 322              		@ args = 0, pretend = 0, frame = 0
 323              		@ frame_needed = 1, uses_anonymous_args = 0
 324 0000 80B5     		push	{r7, lr}
 325              	.LCFI2:
 326              		.cfi_def_cfa_offset 8
 327 0002 00AF     		add	r7, sp, #0
 328              		.cfi_offset 14, -4
 329              		.cfi_offset 7, -8
 330              	.LCFI3:
 331              		.cfi_def_cfa_register 7
  85:.\main.c      **** 	LCD_Start();
 332              		.loc 1 85 0
 333 0004 FFF7FEFF 		bl	LCD_Start
  86:.\main.c      **** 	MSG_1_Start();
 334              		.loc 1 86 0
 335 0008 FFF7FEFF 		bl	MSG_1_Start
  87:.\main.c      **** 	MAD_1_Start();
 336              		.loc 1 87 0
 337 000c FFF7FEFF 		bl	MAD_1_Start
  88:.\main.c      **** 	MAD_2_Start();
 338              		.loc 1 88 0
 339 0010 FFF7FEFF 		bl	MAD_2_Start
  89:.\main.c      **** 	isr_1_Start();
 340              		.loc 1 89 0
 341 0014 FFF7FEFF 		bl	isr_1_Start
  90:.\main.c      **** 	isr_1_SetVector(sleep);
 342              		.loc 1 90 0
 343 0018 40F20000 		movw	r0, #:lower16:sleep
 344 001c C0F20000 		movt	r0, #:upper16:sleep
 345 0020 FFF7FEFF 		bl	isr_1_SetVector
  91:.\main.c      **** 	Timer_Start();
 346              		.loc 1 91 0
 347 0024 FFF7FEFF 		bl	Timer_Start
  92:.\main.c      **** }
 348              		.loc 1 92 0
 349 0028 80BD     		pop	{r7, pc}
 350              		.cfi_endproc
 351              	.LFE30:
 352              		.size	init, .-init
 353 002a 00BF     		.section	.rodata
 354              		.align	2
 355              	.LC0:
 356 0000 544D3A00 		.ascii	"TM:\000"
 357              		.align	2
 358              	.LC1:
 359 0004 252E3266 		.ascii	"%.2f\000"
ARM GAS  C:\Users\ISAACS~1\AppData\Local\Temp\ccQtwPHm.s 			page 9


 359      00
 360 0009 000000   		.align	2
 361              	.LC2:
 362 000c 563A00   		.ascii	"V:\000"
 363 000f 00       		.align	2
 364              	.LC3:
 365 0010 413A00   		.ascii	"A:\000"
 366 0013 00       		.section	.text.main,"ax",%progbits
 367              		.align	2
 368              		.global	main
 369              		.thumb
 370              		.thumb_func
 371              		.type	main, %function
 372              	main:
 373              	.LFB31:
  93:.\main.c      **** 
  94:.\main.c      **** void main()
  95:.\main.c      **** {
 374              		.loc 1 95 0
 375              		.cfi_startproc
 376              		@ args = 0, pretend = 0, frame = 0
 377              		@ frame_needed = 1, uses_anonymous_args = 0
 378 0000 80B5     		push	{r7, lr}
 379              	.LCFI4:
 380              		.cfi_def_cfa_offset 8
 381 0002 00AF     		add	r7, sp, #0
 382              		.cfi_offset 14, -4
 383              		.cfi_offset 7, -8
 384              	.LCFI5:
 385              		.cfi_def_cfa_register 7
  96:.\main.c      **** 	/* Place your initialization/startup code here (e.g. MyInst_Start()) */
  97:.\main.c      **** 	init();
 386              		.loc 1 97 0
 387 0004 FFF7FEFF 		bl	init
  98:.\main.c      **** 	CyGlobalIntEnable; /* Uncomment this line to enable global interrupts. */
 388              		.loc 1 98 0
 389              	@ 98 ".\main.c" 1
 390 0008 62B6     		CPSIE   i
 391              	@ 0 "" 2
 392              		.thumb
 393              	.L12:
  99:.\main.c      ****     for(;;)
 100:.\main.c      ****     {
 101:.\main.c      ****         /* Place your application code here. */
 102:.\main.c      **** 		// IMPRIMINDO O TEMPO
 103:.\main.c      **** 		//LCD_ClearDisplay();
 104:.\main.c      **** 		//LCD_Position(0u, 0u);
 105:.\main.c      **** 	    //LCD_PrintString("TIME:");
 106:.\main.c      **** 		//sprintf(tstr, "%.2f", it );
 107:.\main.c      **** 		//LCD_Position(0u, 5u);
 108:.\main.c      **** 		//LCD_PrintString(tstr);
 109:.\main.c      **** 		
 110:.\main.c      **** 		// IMPRIMINDO O TORQUE
 111:.\main.c      **** 		LCD_Position(0u, 0u);
 394              		.loc 1 111 0
 395 000a 4FF00000 		mov	r0, #0
 396 000e 4FF00001 		mov	r1, #0
ARM GAS  C:\Users\ISAACS~1\AppData\Local\Temp\ccQtwPHm.s 			page 10


 397 0012 FFF7FEFF 		bl	LCD_Position
 112:.\main.c      **** 	    LCD_PrintString("TM:");
 398              		.loc 1 112 0
 399 0016 40F20000 		movw	r0, #:lower16:.LC0
 400 001a C0F20000 		movt	r0, #:upper16:.LC0
 401 001e FFF7FEFF 		bl	LCD_PrintString
 113:.\main.c      **** 		sprintf(tstr, "%.2f", tm );
 402              		.loc 1 113 0
 403 0022 40F20003 		movw	r3, #:lower16:tm
 404 0026 C0F20003 		movt	r3, #:upper16:tm
 405 002a 1B68     		ldr	r3, [r3, #0]	@ float
 406 002c 1846     		mov	r0, r3
 407 002e FFF7FEFF 		bl	__aeabi_f2d
 408 0032 0246     		mov	r2, r0
 409 0034 0B46     		mov	r3, r1
 410 0036 40F20000 		movw	r0, #:lower16:tstr
 411 003a C0F20000 		movt	r0, #:upper16:tstr
 412 003e 40F20001 		movw	r1, #:lower16:.LC1
 413 0042 C0F20001 		movt	r1, #:upper16:.LC1
 414 0046 FFF7FEFF 		bl	sprintf
 114:.\main.c      **** 		LCD_Position(0u, 3u);
 415              		.loc 1 114 0
 416 004a 4FF00000 		mov	r0, #0
 417 004e 4FF00301 		mov	r1, #3
 418 0052 FFF7FEFF 		bl	LCD_Position
 115:.\main.c      **** 		LCD_PrintString(tstr);
 419              		.loc 1 115 0
 420 0056 40F20000 		movw	r0, #:lower16:tstr
 421 005a C0F20000 		movt	r0, #:upper16:tstr
 422 005e FFF7FEFF 		bl	LCD_PrintString
 116:.\main.c      **** 		
 117:.\main.c      **** 		// IMPRIMINDO A VELOCIDADE
 118:.\main.c      **** 		LCD_Position(1u, 0u);
 423              		.loc 1 118 0
 424 0062 4FF00100 		mov	r0, #1
 425 0066 4FF00001 		mov	r1, #0
 426 006a FFF7FEFF 		bl	LCD_Position
 119:.\main.c      **** 	    LCD_PrintString("V:");
 427              		.loc 1 119 0
 428 006e 40F20000 		movw	r0, #:lower16:.LC2
 429 0072 C0F20000 		movt	r0, #:upper16:.LC2
 430 0076 FFF7FEFF 		bl	LCD_PrintString
 120:.\main.c      **** 		LCD_Position(1u, 2u);
 431              		.loc 1 120 0
 432 007a 4FF00100 		mov	r0, #1
 433 007e 4FF00201 		mov	r1, #2
 434 0082 FFF7FEFF 		bl	LCD_Position
 121:.\main.c      **** 		sprintf(tstr, "%.2f", displayedData );
 435              		.loc 1 121 0
 436 0086 40F20003 		movw	r3, #:lower16:displayedData
 437 008a C0F20003 		movt	r3, #:upper16:displayedData
 438 008e 1B68     		ldr	r3, [r3, #0]	@ float
 439 0090 1846     		mov	r0, r3
 440 0092 FFF7FEFF 		bl	__aeabi_f2d
 441 0096 0246     		mov	r2, r0
 442 0098 0B46     		mov	r3, r1
 443 009a 40F20000 		movw	r0, #:lower16:tstr
ARM GAS  C:\Users\ISAACS~1\AppData\Local\Temp\ccQtwPHm.s 			page 11


 444 009e C0F20000 		movt	r0, #:upper16:tstr
 445 00a2 40F20001 		movw	r1, #:lower16:.LC1
 446 00a6 C0F20001 		movt	r1, #:upper16:.LC1
 447 00aa FFF7FEFF 		bl	sprintf
 122:.\main.c      **** 		LCD_PrintString(tstr);
 448              		.loc 1 122 0
 449 00ae 40F20000 		movw	r0, #:lower16:tstr
 450 00b2 C0F20000 		movt	r0, #:upper16:tstr
 451 00b6 FFF7FEFF 		bl	LCD_PrintString
 123:.\main.c      **** 		
 124:.\main.c      **** 		// IMPRIMINDO O ALFA
 125:.\main.c      **** 		LCD_Position(0u, 9u);
 452              		.loc 1 125 0
 453 00ba 4FF00000 		mov	r0, #0
 454 00be 4FF00901 		mov	r1, #9
 455 00c2 FFF7FEFF 		bl	LCD_Position
 126:.\main.c      **** 	    LCD_PrintString("A:");
 456              		.loc 1 126 0
 457 00c6 40F20000 		movw	r0, #:lower16:.LC3
 458 00ca C0F20000 		movt	r0, #:upper16:.LC3
 459 00ce FFF7FEFF 		bl	LCD_PrintString
 127:.\main.c      **** 		sprintf(tstr, "%.2f", alpha );
 460              		.loc 1 127 0
 461 00d2 40F20003 		movw	r3, #:lower16:alpha
 462 00d6 C0F20003 		movt	r3, #:upper16:alpha
 463 00da 1B68     		ldr	r3, [r3, #0]	@ float
 464 00dc 1846     		mov	r0, r3
 465 00de FFF7FEFF 		bl	__aeabi_f2d
 466 00e2 0246     		mov	r2, r0
 467 00e4 0B46     		mov	r3, r1
 468 00e6 40F20000 		movw	r0, #:lower16:tstr
 469 00ea C0F20000 		movt	r0, #:upper16:tstr
 470 00ee 40F20001 		movw	r1, #:lower16:.LC1
 471 00f2 C0F20001 		movt	r1, #:upper16:.LC1
 472 00f6 FFF7FEFF 		bl	sprintf
 128:.\main.c      **** 		LCD_Position(0u, 11u);
 473              		.loc 1 128 0
 474 00fa 4FF00000 		mov	r0, #0
 475 00fe 4FF00B01 		mov	r1, #11
 476 0102 FFF7FEFF 		bl	LCD_Position
 129:.\main.c      **** 		LCD_PrintString(tstr);
 477              		.loc 1 129 0
 478 0106 40F20000 		movw	r0, #:lower16:tstr
 479 010a C0F20000 		movt	r0, #:upper16:tstr
 480 010e FFF7FEFF 		bl	LCD_PrintString
 130:.\main.c      **** 		
 131:.\main.c      **** 	}
 481              		.loc 1 131 0
 482 0112 7AE7     		b	.L12
 483              		.cfi_endproc
 484              	.LFE31:
 485              		.size	main, .-main
 486              		.global	__aeabi_i2d
 487              		.global	__aeabi_d2f
 488              		.global	__aeabi_fmul
 489              		.global	__aeabi_dadd
 490              		.global	__aeabi_fdiv
ARM GAS  C:\Users\ISAACS~1\AppData\Local\Temp\ccQtwPHm.s 			page 12


 491              		.global	__aeabi_fsub
 492              		.section	.text.vehicle_mod,"ax",%progbits
 493              		.align	2
 494              		.global	vehicle_mod
 495              		.thumb
 496              		.thumb_func
 497              		.type	vehicle_mod, %function
 498              	vehicle_mod:
 499              	.LFB32:
 132:.\main.c      **** }
 133:.\main.c      **** 
 134:.\main.c      **** float vehicle_mod(float tm, float theta, float xAnt){
 500              		.loc 1 134 0
 501              		.cfi_startproc
 502              		@ args = 0, pretend = 0, frame = 56
 503              		@ frame_needed = 1, uses_anonymous_args = 0
 504 0000 2DE9B04F 		push	{r4, r5, r7, r8, r9, sl, fp, lr}
 505              	.LCFI6:
 506              		.cfi_def_cfa_offset 32
 507 0004 8EB0     		sub	sp, sp, #56
 508              	.LCFI7:
 509              		.cfi_def_cfa_offset 88
 510 0006 00AF     		add	r7, sp, #0
 511              		.cfi_offset 14, -4
 512              		.cfi_offset 11, -8
 513              		.cfi_offset 10, -12
 514              		.cfi_offset 9, -16
 515              		.cfi_offset 8, -20
 516              		.cfi_offset 7, -24
 517              		.cfi_offset 5, -28
 518              		.cfi_offset 4, -32
 519              	.LCFI8:
 520              		.cfi_def_cfa_register 7
 521 0008 7861     		str	r0, [r7, #20]	@ float
 522 000a 3961     		str	r1, [r7, #16]	@ float
 523 000c FA60     		str	r2, [r7, #12]	@ float
 135:.\main.c      **** 	
 136:.\main.c      **** 	float fd = sgn(xAnt)*(0.5*RO*CD*Afr*pow(xAnt,2)); // Aerodynamic drag
 524              		.loc 1 136 0
 525 000e F868     		ldr	r0, [r7, #12]	@ float
 526 0010 FFF7FEFF 		bl	sgn
 527 0014 0346     		mov	r3, r0
 528 0016 1846     		mov	r0, r3
 529 0018 FFF7FEFF 		bl	__aeabi_i2d
 530 001c 0446     		mov	r4, r0
 531 001e 0D46     		mov	r5, r1
 532 0020 40F20003 		movw	r3, #:lower16:RO
 533 0024 C0F20003 		movt	r3, #:upper16:RO
 534 0028 1B68     		ldr	r3, [r3, #0]	@ float
 535 002a 1846     		mov	r0, r3
 536 002c FFF7FEFF 		bl	__aeabi_f2d
 537 0030 0246     		mov	r2, r0
 538 0032 0B46     		mov	r3, r1
 539 0034 1046     		mov	r0, r2
 540 0036 1946     		mov	r1, r3
 541 0038 4FF00002 		mov	r2, #0
 542 003c 4FF07E53 		mov	r3, #1065353216
ARM GAS  C:\Users\ISAACS~1\AppData\Local\Temp\ccQtwPHm.s 			page 13


 543 0040 03F5C003 		add	r3, r3, #6291456
 544 0044 FFF7FEFF 		bl	__aeabi_dmul
 545 0048 0246     		mov	r2, r0
 546 004a 0B46     		mov	r3, r1
 547 004c 9046     		mov	r8, r2
 548 004e 9946     		mov	r9, r3
 549 0050 40F20003 		movw	r3, #:lower16:CD
 550 0054 C0F20003 		movt	r3, #:upper16:CD
 551 0058 1B68     		ldr	r3, [r3, #0]	@ float
 552 005a 1846     		mov	r0, r3
 553 005c FFF7FEFF 		bl	__aeabi_f2d
 554 0060 0246     		mov	r2, r0
 555 0062 0B46     		mov	r3, r1
 556 0064 4046     		mov	r0, r8
 557 0066 4946     		mov	r1, r9
 558 0068 FFF7FEFF 		bl	__aeabi_dmul
 559 006c 0246     		mov	r2, r0
 560 006e 0B46     		mov	r3, r1
 561 0070 9046     		mov	r8, r2
 562 0072 9946     		mov	r9, r3
 563 0074 40F20003 		movw	r3, #:lower16:Afr
 564 0078 C0F20003 		movt	r3, #:upper16:Afr
 565 007c 1B68     		ldr	r3, [r3, #0]	@ float
 566 007e 1846     		mov	r0, r3
 567 0080 FFF7FEFF 		bl	__aeabi_f2d
 568 0084 0246     		mov	r2, r0
 569 0086 0B46     		mov	r3, r1
 570 0088 4046     		mov	r0, r8
 571 008a 4946     		mov	r1, r9
 572 008c FFF7FEFF 		bl	__aeabi_dmul
 573 0090 0246     		mov	r2, r0
 574 0092 0B46     		mov	r3, r1
 575 0094 9046     		mov	r8, r2
 576 0096 9946     		mov	r9, r3
 577 0098 F868     		ldr	r0, [r7, #12]	@ float
 578 009a FFF7FEFF 		bl	__aeabi_f2d
 579 009e 0246     		mov	r2, r0
 580 00a0 0B46     		mov	r3, r1
 581 00a2 1046     		mov	r0, r2
 582 00a4 1946     		mov	r1, r3
 583 00a6 FFF7FEFF 		bl	__aeabi_dmul
 584 00aa 0246     		mov	r2, r0
 585 00ac 0B46     		mov	r3, r1
 586 00ae 4046     		mov	r0, r8
 587 00b0 4946     		mov	r1, r9
 588 00b2 FFF7FEFF 		bl	__aeabi_dmul
 589 00b6 0246     		mov	r2, r0
 590 00b8 0B46     		mov	r3, r1
 591 00ba 2046     		mov	r0, r4
 592 00bc 2946     		mov	r1, r5
 593 00be FFF7FEFF 		bl	__aeabi_dmul
 594 00c2 0246     		mov	r2, r0
 595 00c4 0B46     		mov	r3, r1
 596 00c6 1046     		mov	r0, r2
 597 00c8 1946     		mov	r1, r3
 598 00ca FFF7FEFF 		bl	__aeabi_d2f
 599 00ce 0346     		mov	r3, r0
ARM GAS  C:\Users\ISAACS~1\AppData\Local\Temp\ccQtwPHm.s 			page 14


 600 00d0 FB61     		str	r3, [r7, #28]	@ float
 137:.\main.c      **** 	float fr = sgn(xAnt)*(M*G*(C0 + C1*pow(xAnt,2))); // Rolling resistance
 601              		.loc 1 137 0
 602 00d2 F868     		ldr	r0, [r7, #12]	@ float
 603 00d4 FFF7FEFF 		bl	sgn
 604 00d8 0346     		mov	r3, r0
 605 00da 1846     		mov	r0, r3
 606 00dc FFF7FEFF 		bl	__aeabi_i2d
 607 00e0 0446     		mov	r4, r0
 608 00e2 0D46     		mov	r5, r1
 609 00e4 40F20003 		movw	r3, #:lower16:M
 610 00e8 C0F20003 		movt	r3, #:upper16:M
 611 00ec 1A68     		ldr	r2, [r3, #0]	@ float
 612 00ee 40F20003 		movw	r3, #:lower16:G
 613 00f2 C0F20003 		movt	r3, #:upper16:G
 614 00f6 1B68     		ldr	r3, [r3, #0]	@ float
 615 00f8 1046     		mov	r0, r2
 616 00fa 1946     		mov	r1, r3
 617 00fc FFF7FEFF 		bl	__aeabi_fmul
 618 0100 0346     		mov	r3, r0
 619 0102 1846     		mov	r0, r3
 620 0104 FFF7FEFF 		bl	__aeabi_f2d
 621 0108 8046     		mov	r8, r0
 622 010a 8946     		mov	r9, r1
 623 010c 40F20003 		movw	r3, #:lower16:C0
 624 0110 C0F20003 		movt	r3, #:upper16:C0
 625 0114 1B68     		ldr	r3, [r3, #0]	@ float
 626 0116 1846     		mov	r0, r3
 627 0118 FFF7FEFF 		bl	__aeabi_f2d
 628 011c 8246     		mov	sl, r0
 629 011e 8B46     		mov	fp, r1
 630 0120 40F20003 		movw	r3, #:lower16:C1
 631 0124 C0F20003 		movt	r3, #:upper16:C1
 632 0128 1B68     		ldr	r3, [r3, #0]	@ float
 633 012a 1846     		mov	r0, r3
 634 012c FFF7FEFF 		bl	__aeabi_f2d
 635 0130 C7E90001 		strd	r0, [r7]
 636 0134 F868     		ldr	r0, [r7, #12]	@ float
 637 0136 FFF7FEFF 		bl	__aeabi_f2d
 638 013a 0246     		mov	r2, r0
 639 013c 0B46     		mov	r3, r1
 640 013e 1046     		mov	r0, r2
 641 0140 1946     		mov	r1, r3
 642 0142 FFF7FEFF 		bl	__aeabi_dmul
 643 0146 0246     		mov	r2, r0
 644 0148 0B46     		mov	r3, r1
 645 014a D7E90001 		ldrd	r0, [r7]
 646 014e FFF7FEFF 		bl	__aeabi_dmul
 647 0152 0246     		mov	r2, r0
 648 0154 0B46     		mov	r3, r1
 649 0156 5046     		mov	r0, sl
 650 0158 5946     		mov	r1, fp
 651 015a FFF7FEFF 		bl	__aeabi_dadd
 652 015e 0246     		mov	r2, r0
 653 0160 0B46     		mov	r3, r1
 654 0162 4046     		mov	r0, r8
 655 0164 4946     		mov	r1, r9
ARM GAS  C:\Users\ISAACS~1\AppData\Local\Temp\ccQtwPHm.s 			page 15


 656 0166 FFF7FEFF 		bl	__aeabi_dmul
 657 016a 0246     		mov	r2, r0
 658 016c 0B46     		mov	r3, r1
 659 016e 2046     		mov	r0, r4
 660 0170 2946     		mov	r1, r5
 661 0172 FFF7FEFF 		bl	__aeabi_dmul
 662 0176 0246     		mov	r2, r0
 663 0178 0B46     		mov	r3, r1
 664 017a 1046     		mov	r0, r2
 665 017c 1946     		mov	r1, r3
 666 017e FFF7FEFF 		bl	__aeabi_d2f
 667 0182 0346     		mov	r3, r0
 668 0184 3B62     		str	r3, [r7, #32]	@ float
 138:.\main.c      **** 	float fg = M*G*sin(theta); // Gravitational friction
 669              		.loc 1 138 0
 670 0186 40F20003 		movw	r3, #:lower16:M
 671 018a C0F20003 		movt	r3, #:upper16:M
 672 018e 1A68     		ldr	r2, [r3, #0]	@ float
 673 0190 40F20003 		movw	r3, #:lower16:G
 674 0194 C0F20003 		movt	r3, #:upper16:G
 675 0198 1B68     		ldr	r3, [r3, #0]	@ float
 676 019a 1046     		mov	r0, r2
 677 019c 1946     		mov	r1, r3
 678 019e FFF7FEFF 		bl	__aeabi_fmul
 679 01a2 0346     		mov	r3, r0
 680 01a4 1846     		mov	r0, r3
 681 01a6 FFF7FEFF 		bl	__aeabi_f2d
 682 01aa 0446     		mov	r4, r0
 683 01ac 0D46     		mov	r5, r1
 684 01ae 3869     		ldr	r0, [r7, #16]	@ float
 685 01b0 FFF7FEFF 		bl	__aeabi_f2d
 686 01b4 0246     		mov	r2, r0
 687 01b6 0B46     		mov	r3, r1
 688 01b8 1046     		mov	r0, r2
 689 01ba 1946     		mov	r1, r3
 690 01bc FFF7FEFF 		bl	sin
 691 01c0 0246     		mov	r2, r0
 692 01c2 0B46     		mov	r3, r1
 693 01c4 2046     		mov	r0, r4
 694 01c6 2946     		mov	r1, r5
 695 01c8 FFF7FEFF 		bl	__aeabi_dmul
 696 01cc 0246     		mov	r2, r0
 697 01ce 0B46     		mov	r3, r1
 698 01d0 1046     		mov	r0, r2
 699 01d2 1946     		mov	r1, r3
 700 01d4 FFF7FEFF 		bl	__aeabi_d2f
 701 01d8 0346     		mov	r3, r0
 702 01da 7B62     		str	r3, [r7, #36]	@ float
 139:.\main.c      **** 	float fa = fd + fr + fg;
 703              		.loc 1 139 0
 704 01dc F869     		ldr	r0, [r7, #28]	@ float
 705 01de 396A     		ldr	r1, [r7, #32]	@ float
 706 01e0 FFF7FEFF 		bl	__aeabi_fadd
 707 01e4 0346     		mov	r3, r0
 708 01e6 1846     		mov	r0, r3
 709 01e8 796A     		ldr	r1, [r7, #36]	@ float
 710 01ea FFF7FEFF 		bl	__aeabi_fadd
ARM GAS  C:\Users\ISAACS~1\AppData\Local\Temp\ccQtwPHm.s 			page 16


 711 01ee 0346     		mov	r3, r0
 712 01f0 BB62     		str	r3, [r7, #40]	@ float
 140:.\main.c      **** 	float ft = tm/R;
 713              		.loc 1 140 0
 714 01f2 40F20003 		movw	r3, #:lower16:R
 715 01f6 C0F20003 		movt	r3, #:upper16:R
 716 01fa 1B68     		ldr	r3, [r3, #0]	@ float
 717 01fc 7869     		ldr	r0, [r7, #20]	@ float
 718 01fe 1946     		mov	r1, r3
 719 0200 FFF7FEFF 		bl	__aeabi_fdiv
 720 0204 0346     		mov	r3, r0
 721 0206 FB62     		str	r3, [r7, #44]	@ float
 141:.\main.c      **** 	
 142:.\main.c      **** 	float x_dot = (ft - fa)/(M*K);
 722              		.loc 1 142 0
 723 0208 F86A     		ldr	r0, [r7, #44]	@ float
 724 020a B96A     		ldr	r1, [r7, #40]	@ float
 725 020c FFF7FEFF 		bl	__aeabi_fsub
 726 0210 0346     		mov	r3, r0
 727 0212 1C46     		mov	r4, r3
 728 0214 40F20003 		movw	r3, #:lower16:M
 729 0218 C0F20003 		movt	r3, #:upper16:M
 730 021c 1A68     		ldr	r2, [r3, #0]	@ float
 731 021e 40F20003 		movw	r3, #:lower16:K
 732 0222 C0F20003 		movt	r3, #:upper16:K
 733 0226 1B68     		ldr	r3, [r3, #0]	@ float
 734 0228 1046     		mov	r0, r2
 735 022a 1946     		mov	r1, r3
 736 022c FFF7FEFF 		bl	__aeabi_fmul
 737 0230 0346     		mov	r3, r0
 738 0232 2046     		mov	r0, r4
 739 0234 1946     		mov	r1, r3
 740 0236 FFF7FEFF 		bl	__aeabi_fdiv
 741 023a 0346     		mov	r3, r0
 742 023c 3B63     		str	r3, [r7, #48]	@ float
 143:.\main.c      **** 	float x = xAnt + x_dot*T_INCR;
 743              		.loc 1 143 0
 744 023e 40F20003 		movw	r3, #:lower16:T_INCR
 745 0242 C0F20003 		movt	r3, #:upper16:T_INCR
 746 0246 1B68     		ldr	r3, [r3, #0]	@ float
 747 0248 1846     		mov	r0, r3
 748 024a 396B     		ldr	r1, [r7, #48]	@ float
 749 024c FFF7FEFF 		bl	__aeabi_fmul
 750 0250 0346     		mov	r3, r0
 751 0252 1846     		mov	r0, r3
 752 0254 F968     		ldr	r1, [r7, #12]	@ float
 753 0256 FFF7FEFF 		bl	__aeabi_fadd
 754 025a 0346     		mov	r3, r0
 755 025c 7B63     		str	r3, [r7, #52]	@ float
 144:.\main.c      **** 	
 145:.\main.c      **** 	return x;
 756              		.loc 1 145 0
 757 025e 7B6B     		ldr	r3, [r7, #52]	@ float
 146:.\main.c      **** }
 758              		.loc 1 146 0
 759 0260 1846     		mov	r0, r3
 760 0262 07F13807 		add	r7, r7, #56
ARM GAS  C:\Users\ISAACS~1\AppData\Local\Temp\ccQtwPHm.s 			page 17


 761 0266 BD46     		mov	sp, r7
 762 0268 BDE8B08F 		pop	{r4, r5, r7, r8, r9, sl, fp, pc}
 763              		.cfi_endproc
 764              	.LFE32:
 765              		.size	vehicle_mod, .-vehicle_mod
 766              		.global	__aeabi_fcmpgt
 767              		.global	__aeabi_fcmplt
 768              		.section	.text.sgn,"ax",%progbits
 769              		.align	2
 770              		.global	sgn
 771              		.thumb
 772              		.thumb_func
 773              		.type	sgn, %function
 774              	sgn:
 775              	.LFB33:
 147:.\main.c      **** 
 148:.\main.c      **** /*Sign function*/
 149:.\main.c      **** int sgn(float x) {
 776              		.loc 1 149 0
 777              		.cfi_startproc
 778              		@ args = 0, pretend = 0, frame = 8
 779              		@ frame_needed = 1, uses_anonymous_args = 0
 780 0000 90B5     		push	{r4, r7, lr}
 781              	.LCFI9:
 782              		.cfi_def_cfa_offset 12
 783 0002 83B0     		sub	sp, sp, #12
 784              	.LCFI10:
 785              		.cfi_def_cfa_offset 24
 786 0004 00AF     		add	r7, sp, #0
 787              		.cfi_offset 14, -4
 788              		.cfi_offset 7, -8
 789              		.cfi_offset 4, -12
 790              	.LCFI11:
 791              		.cfi_def_cfa_register 7
 792 0006 7860     		str	r0, [r7, #4]	@ float
 150:.\main.c      ****     return (x > 0) ? 1 : ((x < 0) ? -1 : 0);
 793              		.loc 1 150 0
 794 0008 4FF00003 		mov	r3, #0
 795 000c 1C46     		mov	r4, r3
 796 000e 7868     		ldr	r0, [r7, #4]	@ float
 797 0010 1449     		ldr	r1, .L26	@ float
 798 0012 FFF7FEFF 		bl	__aeabi_fcmpgt
 799 0016 0346     		mov	r3, r0
 800 0018 002B     		cmp	r3, #0
 801 001a 02D0     		beq	.L17
 802              	.L18:
 803 001c 4FF00103 		mov	r3, #1
 804 0020 1C46     		mov	r4, r3
 805              	.L17:
 806 0022 E3B2     		uxtb	r3, r4
 807 0024 002B     		cmp	r3, #0
 808 0026 02D0     		beq	.L19
 809 0028 4FF00103 		mov	r3, #1
 810 002c 14E0     		b	.L20
 811              	.L19:
 812 002e 4FF00003 		mov	r3, #0
 813 0032 1C46     		mov	r4, r3
ARM GAS  C:\Users\ISAACS~1\AppData\Local\Temp\ccQtwPHm.s 			page 18


 814 0034 7868     		ldr	r0, [r7, #4]	@ float
 815 0036 0B49     		ldr	r1, .L26	@ float
 816 0038 FFF7FEFF 		bl	__aeabi_fcmplt
 817 003c 0346     		mov	r3, r0
 818 003e 002B     		cmp	r3, #0
 819 0040 02D0     		beq	.L21
 820              	.L22:
 821 0042 4FF00103 		mov	r3, #1
 822 0046 1C46     		mov	r4, r3
 823              	.L21:
 824 0048 E3B2     		uxtb	r3, r4
 825 004a 002B     		cmp	r3, #0
 826 004c 02D0     		beq	.L23
 827 004e 4FF0FF33 		mov	r3, #-1
 828 0052 01E0     		b	.L24
 829              	.L23:
 830 0054 4FF00003 		mov	r3, #0
 831              	.L24:
 832              	.L20:
 151:.\main.c      **** }
 833              		.loc 1 151 0
 834 0058 1846     		mov	r0, r3
 835 005a 07F10C07 		add	r7, r7, #12
 836 005e BD46     		mov	sp, r7
 837 0060 90BD     		pop	{r4, r7, pc}
 838              	.L27:
 839 0062 00BF     		.align	2
 840              	.L26:
 841 0064 00000000 		.word	0
 842              		.cfi_endproc
 843              	.LFE33:
 844              		.size	sgn, .-sgn
 845              		.text
 846              	.Letext0: